ARM GAS  C:\Users\ASUS\AppData\Local\Temp\ccLOtXM9.s 			page 1


   1              		.cpu cortex-m3
   2              		.eabi_attribute 20, 1
   3              		.eabi_attribute 21, 1
   4              		.eabi_attribute 23, 3
   5              		.eabi_attribute 24, 1
   6              		.eabi_attribute 25, 1
   7              		.eabi_attribute 26, 1
   8              		.eabi_attribute 30, 1
   9              		.eabi_attribute 34, 1
  10              		.eabi_attribute 18, 4
  11              		.file	"u8g2_d_setup.c"
  12              		.text
  13              	.Ltext0:
  14              		.cfi_sections	.debug_frame
  15              		.section	.text.u8g2_Setup_ssd1305_128x32_noname_1,"ax",%progbits
  16              		.align	1
  17              		.global	u8g2_Setup_ssd1305_128x32_noname_1
  18              		.syntax unified
  19              		.thumb
  20              		.thumb_func
  21              		.fpu softvfp
  23              	u8g2_Setup_ssd1305_128x32_noname_1:
  24              	.LFB0:
  25              		.file 1 "Core/u8g2/u8g2_d_setup.c"
   1:Core/u8g2/u8g2_d_setup.c **** /* u8g2_d_setup.c */
   2:Core/u8g2/u8g2_d_setup.c **** /* generated code, codebuild, u8g2 project */
   3:Core/u8g2/u8g2_d_setup.c **** 
   4:Core/u8g2/u8g2_d_setup.c **** #include "../u8g2/u8g2.h"
   5:Core/u8g2/u8g2_d_setup.c **** 
   6:Core/u8g2/u8g2_d_setup.c **** /* ssd1305 */
   7:Core/u8g2/u8g2_d_setup.c **** /* ssd1305 1 */
   8:Core/u8g2/u8g2_d_setup.c **** void u8g2_Setup_ssd1305_128x32_noname_1(u8g2_t *u8g2, const u8g2_cb_t *rotation, u8x8_msg_cb byte_c
   9:Core/u8g2/u8g2_d_setup.c **** {
  26              		.loc 1 9 0
  27              		.cfi_startproc
  28              		@ args = 0, pretend = 0, frame = 8
  29              		@ frame_needed = 0, uses_anonymous_args = 0
  30              	.LVL0:
  31 0000 30B5     		push	{r4, r5, lr}
  32              	.LCFI0:
  33              		.cfi_def_cfa_offset 12
  34              		.cfi_offset 4, -12
  35              		.cfi_offset 5, -8
  36              		.cfi_offset 14, -4
  37 0002 85B0     		sub	sp, sp, #20
  38              	.LCFI1:
  39              		.cfi_def_cfa_offset 32
  40 0004 0446     		mov	r4, r0
  41 0006 0D46     		mov	r5, r1
  10:Core/u8g2/u8g2_d_setup.c ****   uint8_t tile_buf_height;
  11:Core/u8g2/u8g2_d_setup.c ****   uint8_t *buf;
  12:Core/u8g2/u8g2_d_setup.c ****   u8g2_SetupDisplay(u8g2, u8x8_d_ssd1305_128x32_noname, u8x8_cad_001, byte_cb, gpio_and_delay_cb);
  42              		.loc 1 12 0
  43 0008 0093     		str	r3, [sp]
  44 000a 1346     		mov	r3, r2
  45              	.LVL1:
  46 000c 084A     		ldr	r2, .L3
ARM GAS  C:\Users\ASUS\AppData\Local\Temp\ccLOtXM9.s 			page 2


  47              	.LVL2:
  48 000e 0949     		ldr	r1, .L3+4
  49              	.LVL3:
  50 0010 FFF7FEFF 		bl	u8x8_Setup
  51              	.LVL4:
  13:Core/u8g2/u8g2_d_setup.c ****   buf = u8g2_m_16_4_1(&tile_buf_height);
  52              		.loc 1 13 0
  53 0014 0DF10F00 		add	r0, sp, #15
  54 0018 FFF7FEFF 		bl	u8g2_m_16_4_1
  55              	.LVL5:
  14:Core/u8g2/u8g2_d_setup.c ****   u8g2_SetupBuffer(u8g2, buf, tile_buf_height, u8g2_ll_hvline_vertical_top_lsb, rotation);
  56              		.loc 1 14 0
  57 001c 9DF80F20 		ldrb	r2, [sp, #15]	@ zero_extendqisi2
  58 0020 0095     		str	r5, [sp]
  59 0022 054B     		ldr	r3, .L3+8
  60 0024 0146     		mov	r1, r0
  61 0026 2046     		mov	r0, r4
  62              	.LVL6:
  63 0028 FFF7FEFF 		bl	u8g2_SetupBuffer
  64              	.LVL7:
  15:Core/u8g2/u8g2_d_setup.c **** }
  65              		.loc 1 15 0
  66 002c 05B0     		add	sp, sp, #20
  67              	.LCFI2:
  68              		.cfi_def_cfa_offset 12
  69              		@ sp needed
  70 002e 30BD     		pop	{r4, r5, pc}
  71              	.LVL8:
  72              	.L4:
  73              		.align	2
  74              	.L3:
  75 0030 00000000 		.word	u8x8_cad_001
  76 0034 00000000 		.word	u8x8_d_ssd1305_128x32_noname
  77 0038 00000000 		.word	u8g2_ll_hvline_vertical_top_lsb
  78              		.cfi_endproc
  79              	.LFE0:
  81              		.section	.text.u8g2_Setup_ssd1305_128x32_adafruit_1,"ax",%progbits
  82              		.align	1
  83              		.global	u8g2_Setup_ssd1305_128x32_adafruit_1
  84              		.syntax unified
  85              		.thumb
  86              		.thumb_func
  87              		.fpu softvfp
  89              	u8g2_Setup_ssd1305_128x32_adafruit_1:
  90              	.LFB1:
  16:Core/u8g2/u8g2_d_setup.c **** void u8g2_Setup_ssd1305_128x32_adafruit_1(u8g2_t *u8g2, const u8g2_cb_t *rotation, u8x8_msg_cb byte
  17:Core/u8g2/u8g2_d_setup.c **** {
  91              		.loc 1 17 0
  92              		.cfi_startproc
  93              		@ args = 0, pretend = 0, frame = 8
  94              		@ frame_needed = 0, uses_anonymous_args = 0
  95              	.LVL9:
  96 0000 30B5     		push	{r4, r5, lr}
  97              	.LCFI3:
  98              		.cfi_def_cfa_offset 12
  99              		.cfi_offset 4, -12
 100              		.cfi_offset 5, -8
ARM GAS  C:\Users\ASUS\AppData\Local\Temp\ccLOtXM9.s 			page 3


 101              		.cfi_offset 14, -4
 102 0002 85B0     		sub	sp, sp, #20
 103              	.LCFI4:
 104              		.cfi_def_cfa_offset 32
 105 0004 0446     		mov	r4, r0
 106 0006 0D46     		mov	r5, r1
  18:Core/u8g2/u8g2_d_setup.c ****   uint8_t tile_buf_height;
  19:Core/u8g2/u8g2_d_setup.c ****   uint8_t *buf;
  20:Core/u8g2/u8g2_d_setup.c ****   u8g2_SetupDisplay(u8g2, u8x8_d_ssd1305_128x32_adafruit, u8x8_cad_001, byte_cb, gpio_and_delay_cb)
 107              		.loc 1 20 0
 108 0008 0093     		str	r3, [sp]
 109 000a 1346     		mov	r3, r2
 110              	.LVL10:
 111 000c 084A     		ldr	r2, .L7
 112              	.LVL11:
 113 000e 0949     		ldr	r1, .L7+4
 114              	.LVL12:
 115 0010 FFF7FEFF 		bl	u8x8_Setup
 116              	.LVL13:
  21:Core/u8g2/u8g2_d_setup.c ****   buf = u8g2_m_16_4_1(&tile_buf_height);
 117              		.loc 1 21 0
 118 0014 0DF10F00 		add	r0, sp, #15
 119 0018 FFF7FEFF 		bl	u8g2_m_16_4_1
 120              	.LVL14:
  22:Core/u8g2/u8g2_d_setup.c ****   u8g2_SetupBuffer(u8g2, buf, tile_buf_height, u8g2_ll_hvline_vertical_top_lsb, rotation);
 121              		.loc 1 22 0
 122 001c 9DF80F20 		ldrb	r2, [sp, #15]	@ zero_extendqisi2
 123 0020 0095     		str	r5, [sp]
 124 0022 054B     		ldr	r3, .L7+8
 125 0024 0146     		mov	r1, r0
 126 0026 2046     		mov	r0, r4
 127              	.LVL15:
 128 0028 FFF7FEFF 		bl	u8g2_SetupBuffer
 129              	.LVL16:
  23:Core/u8g2/u8g2_d_setup.c **** }
 130              		.loc 1 23 0
 131 002c 05B0     		add	sp, sp, #20
 132              	.LCFI5:
 133              		.cfi_def_cfa_offset 12
 134              		@ sp needed
 135 002e 30BD     		pop	{r4, r5, pc}
 136              	.LVL17:
 137              	.L8:
 138              		.align	2
 139              	.L7:
 140 0030 00000000 		.word	u8x8_cad_001
 141 0034 00000000 		.word	u8x8_d_ssd1305_128x32_adafruit
 142 0038 00000000 		.word	u8g2_ll_hvline_vertical_top_lsb
 143              		.cfi_endproc
 144              	.LFE1:
 146              		.section	.text.u8g2_Setup_ssd1305_128x32_noname_2,"ax",%progbits
 147              		.align	1
 148              		.global	u8g2_Setup_ssd1305_128x32_noname_2
 149              		.syntax unified
 150              		.thumb
 151              		.thumb_func
 152              		.fpu softvfp
ARM GAS  C:\Users\ASUS\AppData\Local\Temp\ccLOtXM9.s 			page 4


 154              	u8g2_Setup_ssd1305_128x32_noname_2:
 155              	.LFB2:
  24:Core/u8g2/u8g2_d_setup.c **** /* ssd1305 2 */
  25:Core/u8g2/u8g2_d_setup.c **** void u8g2_Setup_ssd1305_128x32_noname_2(u8g2_t *u8g2, const u8g2_cb_t *rotation, u8x8_msg_cb byte_c
  26:Core/u8g2/u8g2_d_setup.c **** {
 156              		.loc 1 26 0
 157              		.cfi_startproc
 158              		@ args = 0, pretend = 0, frame = 8
 159              		@ frame_needed = 0, uses_anonymous_args = 0
 160              	.LVL18:
 161 0000 30B5     		push	{r4, r5, lr}
 162              	.LCFI6:
 163              		.cfi_def_cfa_offset 12
 164              		.cfi_offset 4, -12
 165              		.cfi_offset 5, -8
 166              		.cfi_offset 14, -4
 167 0002 85B0     		sub	sp, sp, #20
 168              	.LCFI7:
 169              		.cfi_def_cfa_offset 32
 170 0004 0446     		mov	r4, r0
 171 0006 0D46     		mov	r5, r1
  27:Core/u8g2/u8g2_d_setup.c ****   uint8_t tile_buf_height;
  28:Core/u8g2/u8g2_d_setup.c ****   uint8_t *buf;
  29:Core/u8g2/u8g2_d_setup.c ****   u8g2_SetupDisplay(u8g2, u8x8_d_ssd1305_128x32_noname, u8x8_cad_001, byte_cb, gpio_and_delay_cb);
 172              		.loc 1 29 0
 173 0008 0093     		str	r3, [sp]
 174 000a 1346     		mov	r3, r2
 175              	.LVL19:
 176 000c 084A     		ldr	r2, .L11
 177              	.LVL20:
 178 000e 0949     		ldr	r1, .L11+4
 179              	.LVL21:
 180 0010 FFF7FEFF 		bl	u8x8_Setup
 181              	.LVL22:
  30:Core/u8g2/u8g2_d_setup.c ****   buf = u8g2_m_16_4_2(&tile_buf_height);
 182              		.loc 1 30 0
 183 0014 0DF10F00 		add	r0, sp, #15
 184 0018 FFF7FEFF 		bl	u8g2_m_16_4_2
 185              	.LVL23:
  31:Core/u8g2/u8g2_d_setup.c ****   u8g2_SetupBuffer(u8g2, buf, tile_buf_height, u8g2_ll_hvline_vertical_top_lsb, rotation);
 186              		.loc 1 31 0
 187 001c 9DF80F20 		ldrb	r2, [sp, #15]	@ zero_extendqisi2
 188 0020 0095     		str	r5, [sp]
 189 0022 054B     		ldr	r3, .L11+8
 190 0024 0146     		mov	r1, r0
 191 0026 2046     		mov	r0, r4
 192              	.LVL24:
 193 0028 FFF7FEFF 		bl	u8g2_SetupBuffer
 194              	.LVL25:
  32:Core/u8g2/u8g2_d_setup.c **** }
 195              		.loc 1 32 0
 196 002c 05B0     		add	sp, sp, #20
 197              	.LCFI8:
 198              		.cfi_def_cfa_offset 12
 199              		@ sp needed
 200 002e 30BD     		pop	{r4, r5, pc}
 201              	.LVL26:
ARM GAS  C:\Users\ASUS\AppData\Local\Temp\ccLOtXM9.s 			page 5


 202              	.L12:
 203              		.align	2
 204              	.L11:
 205 0030 00000000 		.word	u8x8_cad_001
 206 0034 00000000 		.word	u8x8_d_ssd1305_128x32_noname
 207 0038 00000000 		.word	u8g2_ll_hvline_vertical_top_lsb
 208              		.cfi_endproc
 209              	.LFE2:
 211              		.section	.text.u8g2_Setup_ssd1305_128x32_adafruit_2,"ax",%progbits
 212              		.align	1
 213              		.global	u8g2_Setup_ssd1305_128x32_adafruit_2
 214              		.syntax unified
 215              		.thumb
 216              		.thumb_func
 217              		.fpu softvfp
 219              	u8g2_Setup_ssd1305_128x32_adafruit_2:
 220              	.LFB3:
  33:Core/u8g2/u8g2_d_setup.c **** void u8g2_Setup_ssd1305_128x32_adafruit_2(u8g2_t *u8g2, const u8g2_cb_t *rotation, u8x8_msg_cb byte
  34:Core/u8g2/u8g2_d_setup.c **** {
 221              		.loc 1 34 0
 222              		.cfi_startproc
 223              		@ args = 0, pretend = 0, frame = 8
 224              		@ frame_needed = 0, uses_anonymous_args = 0
 225              	.LVL27:
 226 0000 30B5     		push	{r4, r5, lr}
 227              	.LCFI9:
 228              		.cfi_def_cfa_offset 12
 229              		.cfi_offset 4, -12
 230              		.cfi_offset 5, -8
 231              		.cfi_offset 14, -4
 232 0002 85B0     		sub	sp, sp, #20
 233              	.LCFI10:
 234              		.cfi_def_cfa_offset 32
 235 0004 0446     		mov	r4, r0
 236 0006 0D46     		mov	r5, r1
  35:Core/u8g2/u8g2_d_setup.c ****   uint8_t tile_buf_height;
  36:Core/u8g2/u8g2_d_setup.c ****   uint8_t *buf;
  37:Core/u8g2/u8g2_d_setup.c ****   u8g2_SetupDisplay(u8g2, u8x8_d_ssd1305_128x32_adafruit, u8x8_cad_001, byte_cb, gpio_and_delay_cb)
 237              		.loc 1 37 0
 238 0008 0093     		str	r3, [sp]
 239 000a 1346     		mov	r3, r2
 240              	.LVL28:
 241 000c 084A     		ldr	r2, .L15
 242              	.LVL29:
 243 000e 0949     		ldr	r1, .L15+4
 244              	.LVL30:
 245 0010 FFF7FEFF 		bl	u8x8_Setup
 246              	.LVL31:
  38:Core/u8g2/u8g2_d_setup.c ****   buf = u8g2_m_16_4_2(&tile_buf_height);
 247              		.loc 1 38 0
 248 0014 0DF10F00 		add	r0, sp, #15
 249 0018 FFF7FEFF 		bl	u8g2_m_16_4_2
 250              	.LVL32:
  39:Core/u8g2/u8g2_d_setup.c ****   u8g2_SetupBuffer(u8g2, buf, tile_buf_height, u8g2_ll_hvline_vertical_top_lsb, rotation);
 251              		.loc 1 39 0
 252 001c 9DF80F20 		ldrb	r2, [sp, #15]	@ zero_extendqisi2
 253 0020 0095     		str	r5, [sp]
ARM GAS  C:\Users\ASUS\AppData\Local\Temp\ccLOtXM9.s 			page 6


 254 0022 054B     		ldr	r3, .L15+8
 255 0024 0146     		mov	r1, r0
 256 0026 2046     		mov	r0, r4
 257              	.LVL33:
 258 0028 FFF7FEFF 		bl	u8g2_SetupBuffer
 259              	.LVL34:
  40:Core/u8g2/u8g2_d_setup.c **** }
 260              		.loc 1 40 0
 261 002c 05B0     		add	sp, sp, #20
 262              	.LCFI11:
 263              		.cfi_def_cfa_offset 12
 264              		@ sp needed
 265 002e 30BD     		pop	{r4, r5, pc}
 266              	.LVL35:
 267              	.L16:
 268              		.align	2
 269              	.L15:
 270 0030 00000000 		.word	u8x8_cad_001
 271 0034 00000000 		.word	u8x8_d_ssd1305_128x32_adafruit
 272 0038 00000000 		.word	u8g2_ll_hvline_vertical_top_lsb
 273              		.cfi_endproc
 274              	.LFE3:
 276              		.section	.text.u8g2_Setup_ssd1305_128x32_noname_f,"ax",%progbits
 277              		.align	1
 278              		.global	u8g2_Setup_ssd1305_128x32_noname_f
 279              		.syntax unified
 280              		.thumb
 281              		.thumb_func
 282              		.fpu softvfp
 284              	u8g2_Setup_ssd1305_128x32_noname_f:
 285              	.LFB4:
  41:Core/u8g2/u8g2_d_setup.c **** /* ssd1305 f */
  42:Core/u8g2/u8g2_d_setup.c **** void u8g2_Setup_ssd1305_128x32_noname_f(u8g2_t *u8g2, const u8g2_cb_t *rotation, u8x8_msg_cb byte_c
  43:Core/u8g2/u8g2_d_setup.c **** {
 286              		.loc 1 43 0
 287              		.cfi_startproc
 288              		@ args = 0, pretend = 0, frame = 8
 289              		@ frame_needed = 0, uses_anonymous_args = 0
 290              	.LVL36:
 291 0000 30B5     		push	{r4, r5, lr}
 292              	.LCFI12:
 293              		.cfi_def_cfa_offset 12
 294              		.cfi_offset 4, -12
 295              		.cfi_offset 5, -8
 296              		.cfi_offset 14, -4
 297 0002 85B0     		sub	sp, sp, #20
 298              	.LCFI13:
 299              		.cfi_def_cfa_offset 32
 300 0004 0446     		mov	r4, r0
 301 0006 0D46     		mov	r5, r1
  44:Core/u8g2/u8g2_d_setup.c ****   uint8_t tile_buf_height;
  45:Core/u8g2/u8g2_d_setup.c ****   uint8_t *buf;
  46:Core/u8g2/u8g2_d_setup.c ****   u8g2_SetupDisplay(u8g2, u8x8_d_ssd1305_128x32_noname, u8x8_cad_001, byte_cb, gpio_and_delay_cb);
 302              		.loc 1 46 0
 303 0008 0093     		str	r3, [sp]
 304 000a 1346     		mov	r3, r2
 305              	.LVL37:
ARM GAS  C:\Users\ASUS\AppData\Local\Temp\ccLOtXM9.s 			page 7


 306 000c 084A     		ldr	r2, .L19
 307              	.LVL38:
 308 000e 0949     		ldr	r1, .L19+4
 309              	.LVL39:
 310 0010 FFF7FEFF 		bl	u8x8_Setup
 311              	.LVL40:
  47:Core/u8g2/u8g2_d_setup.c ****   buf = u8g2_m_16_4_f(&tile_buf_height);
 312              		.loc 1 47 0
 313 0014 0DF10F00 		add	r0, sp, #15
 314 0018 FFF7FEFF 		bl	u8g2_m_16_4_f
 315              	.LVL41:
  48:Core/u8g2/u8g2_d_setup.c ****   u8g2_SetupBuffer(u8g2, buf, tile_buf_height, u8g2_ll_hvline_vertical_top_lsb, rotation);
 316              		.loc 1 48 0
 317 001c 9DF80F20 		ldrb	r2, [sp, #15]	@ zero_extendqisi2
 318 0020 0095     		str	r5, [sp]
 319 0022 054B     		ldr	r3, .L19+8
 320 0024 0146     		mov	r1, r0
 321 0026 2046     		mov	r0, r4
 322              	.LVL42:
 323 0028 FFF7FEFF 		bl	u8g2_SetupBuffer
 324              	.LVL43:
  49:Core/u8g2/u8g2_d_setup.c **** }
 325              		.loc 1 49 0
 326 002c 05B0     		add	sp, sp, #20
 327              	.LCFI14:
 328              		.cfi_def_cfa_offset 12
 329              		@ sp needed
 330 002e 30BD     		pop	{r4, r5, pc}
 331              	.LVL44:
 332              	.L20:
 333              		.align	2
 334              	.L19:
 335 0030 00000000 		.word	u8x8_cad_001
 336 0034 00000000 		.word	u8x8_d_ssd1305_128x32_noname
 337 0038 00000000 		.word	u8g2_ll_hvline_vertical_top_lsb
 338              		.cfi_endproc
 339              	.LFE4:
 341              		.section	.text.u8g2_Setup_ssd1305_128x32_adafruit_f,"ax",%progbits
 342              		.align	1
 343              		.global	u8g2_Setup_ssd1305_128x32_adafruit_f
 344              		.syntax unified
 345              		.thumb
 346              		.thumb_func
 347              		.fpu softvfp
 349              	u8g2_Setup_ssd1305_128x32_adafruit_f:
 350              	.LFB5:
  50:Core/u8g2/u8g2_d_setup.c **** void u8g2_Setup_ssd1305_128x32_adafruit_f(u8g2_t *u8g2, const u8g2_cb_t *rotation, u8x8_msg_cb byte
  51:Core/u8g2/u8g2_d_setup.c **** {
 351              		.loc 1 51 0
 352              		.cfi_startproc
 353              		@ args = 0, pretend = 0, frame = 8
 354              		@ frame_needed = 0, uses_anonymous_args = 0
 355              	.LVL45:
 356 0000 30B5     		push	{r4, r5, lr}
 357              	.LCFI15:
 358              		.cfi_def_cfa_offset 12
 359              		.cfi_offset 4, -12
ARM GAS  C:\Users\ASUS\AppData\Local\Temp\ccLOtXM9.s 			page 8


 360              		.cfi_offset 5, -8
 361              		.cfi_offset 14, -4
 362 0002 85B0     		sub	sp, sp, #20
 363              	.LCFI16:
 364              		.cfi_def_cfa_offset 32
 365 0004 0446     		mov	r4, r0
 366 0006 0D46     		mov	r5, r1
  52:Core/u8g2/u8g2_d_setup.c ****   uint8_t tile_buf_height;
  53:Core/u8g2/u8g2_d_setup.c ****   uint8_t *buf;
  54:Core/u8g2/u8g2_d_setup.c ****   u8g2_SetupDisplay(u8g2, u8x8_d_ssd1305_128x32_adafruit, u8x8_cad_001, byte_cb, gpio_and_delay_cb)
 367              		.loc 1 54 0
 368 0008 0093     		str	r3, [sp]
 369 000a 1346     		mov	r3, r2
 370              	.LVL46:
 371 000c 084A     		ldr	r2, .L23
 372              	.LVL47:
 373 000e 0949     		ldr	r1, .L23+4
 374              	.LVL48:
 375 0010 FFF7FEFF 		bl	u8x8_Setup
 376              	.LVL49:
  55:Core/u8g2/u8g2_d_setup.c ****   buf = u8g2_m_16_4_f(&tile_buf_height);
 377              		.loc 1 55 0
 378 0014 0DF10F00 		add	r0, sp, #15
 379 0018 FFF7FEFF 		bl	u8g2_m_16_4_f
 380              	.LVL50:
  56:Core/u8g2/u8g2_d_setup.c ****   u8g2_SetupBuffer(u8g2, buf, tile_buf_height, u8g2_ll_hvline_vertical_top_lsb, rotation);
 381              		.loc 1 56 0
 382 001c 9DF80F20 		ldrb	r2, [sp, #15]	@ zero_extendqisi2
 383 0020 0095     		str	r5, [sp]
 384 0022 054B     		ldr	r3, .L23+8
 385 0024 0146     		mov	r1, r0
 386 0026 2046     		mov	r0, r4
 387              	.LVL51:
 388 0028 FFF7FEFF 		bl	u8g2_SetupBuffer
 389              	.LVL52:
  57:Core/u8g2/u8g2_d_setup.c **** }
 390              		.loc 1 57 0
 391 002c 05B0     		add	sp, sp, #20
 392              	.LCFI17:
 393              		.cfi_def_cfa_offset 12
 394              		@ sp needed
 395 002e 30BD     		pop	{r4, r5, pc}
 396              	.LVL53:
 397              	.L24:
 398              		.align	2
 399              	.L23:
 400 0030 00000000 		.word	u8x8_cad_001
 401 0034 00000000 		.word	u8x8_d_ssd1305_128x32_adafruit
 402 0038 00000000 		.word	u8g2_ll_hvline_vertical_top_lsb
 403              		.cfi_endproc
 404              	.LFE5:
 406              		.section	.text.u8g2_Setup_ssd1305_i2c_128x32_noname_1,"ax",%progbits
 407              		.align	1
 408              		.global	u8g2_Setup_ssd1305_i2c_128x32_noname_1
 409              		.syntax unified
 410              		.thumb
 411              		.thumb_func
ARM GAS  C:\Users\ASUS\AppData\Local\Temp\ccLOtXM9.s 			page 9


 412              		.fpu softvfp
 414              	u8g2_Setup_ssd1305_i2c_128x32_noname_1:
 415              	.LFB6:
  58:Core/u8g2/u8g2_d_setup.c **** /* ssd1305 */
  59:Core/u8g2/u8g2_d_setup.c **** /* ssd1305 1 */
  60:Core/u8g2/u8g2_d_setup.c **** void u8g2_Setup_ssd1305_i2c_128x32_noname_1(u8g2_t *u8g2, const u8g2_cb_t *rotation, u8x8_msg_cb by
  61:Core/u8g2/u8g2_d_setup.c **** {
 416              		.loc 1 61 0
 417              		.cfi_startproc
 418              		@ args = 0, pretend = 0, frame = 8
 419              		@ frame_needed = 0, uses_anonymous_args = 0
 420              	.LVL54:
 421 0000 30B5     		push	{r4, r5, lr}
 422              	.LCFI18:
 423              		.cfi_def_cfa_offset 12
 424              		.cfi_offset 4, -12
 425              		.cfi_offset 5, -8
 426              		.cfi_offset 14, -4
 427 0002 85B0     		sub	sp, sp, #20
 428              	.LCFI19:
 429              		.cfi_def_cfa_offset 32
 430 0004 0446     		mov	r4, r0
 431 0006 0D46     		mov	r5, r1
  62:Core/u8g2/u8g2_d_setup.c ****   uint8_t tile_buf_height;
  63:Core/u8g2/u8g2_d_setup.c ****   uint8_t *buf;
  64:Core/u8g2/u8g2_d_setup.c ****   u8g2_SetupDisplay(u8g2, u8x8_d_ssd1305_128x32_noname, u8x8_cad_ssd13xx_i2c, byte_cb, gpio_and_del
 432              		.loc 1 64 0
 433 0008 0093     		str	r3, [sp]
 434 000a 1346     		mov	r3, r2
 435              	.LVL55:
 436 000c 084A     		ldr	r2, .L27
 437              	.LVL56:
 438 000e 0949     		ldr	r1, .L27+4
 439              	.LVL57:
 440 0010 FFF7FEFF 		bl	u8x8_Setup
 441              	.LVL58:
  65:Core/u8g2/u8g2_d_setup.c ****   buf = u8g2_m_16_4_1(&tile_buf_height);
 442              		.loc 1 65 0
 443 0014 0DF10F00 		add	r0, sp, #15
 444 0018 FFF7FEFF 		bl	u8g2_m_16_4_1
 445              	.LVL59:
  66:Core/u8g2/u8g2_d_setup.c ****   u8g2_SetupBuffer(u8g2, buf, tile_buf_height, u8g2_ll_hvline_vertical_top_lsb, rotation);
 446              		.loc 1 66 0
 447 001c 9DF80F20 		ldrb	r2, [sp, #15]	@ zero_extendqisi2
 448 0020 0095     		str	r5, [sp]
 449 0022 054B     		ldr	r3, .L27+8
 450 0024 0146     		mov	r1, r0
 451 0026 2046     		mov	r0, r4
 452              	.LVL60:
 453 0028 FFF7FEFF 		bl	u8g2_SetupBuffer
 454              	.LVL61:
  67:Core/u8g2/u8g2_d_setup.c **** }
 455              		.loc 1 67 0
 456 002c 05B0     		add	sp, sp, #20
 457              	.LCFI20:
 458              		.cfi_def_cfa_offset 12
 459              		@ sp needed
ARM GAS  C:\Users\ASUS\AppData\Local\Temp\ccLOtXM9.s 			page 10


 460 002e 30BD     		pop	{r4, r5, pc}
 461              	.LVL62:
 462              	.L28:
 463              		.align	2
 464              	.L27:
 465 0030 00000000 		.word	u8x8_cad_ssd13xx_i2c
 466 0034 00000000 		.word	u8x8_d_ssd1305_128x32_noname
 467 0038 00000000 		.word	u8g2_ll_hvline_vertical_top_lsb
 468              		.cfi_endproc
 469              	.LFE6:
 471              		.section	.text.u8g2_Setup_ssd1305_i2c_128x32_adafruit_1,"ax",%progbits
 472              		.align	1
 473              		.global	u8g2_Setup_ssd1305_i2c_128x32_adafruit_1
 474              		.syntax unified
 475              		.thumb
 476              		.thumb_func
 477              		.fpu softvfp
 479              	u8g2_Setup_ssd1305_i2c_128x32_adafruit_1:
 480              	.LFB7:
  68:Core/u8g2/u8g2_d_setup.c **** void u8g2_Setup_ssd1305_i2c_128x32_adafruit_1(u8g2_t *u8g2, const u8g2_cb_t *rotation, u8x8_msg_cb 
  69:Core/u8g2/u8g2_d_setup.c **** {
 481              		.loc 1 69 0
 482              		.cfi_startproc
 483              		@ args = 0, pretend = 0, frame = 8
 484              		@ frame_needed = 0, uses_anonymous_args = 0
 485              	.LVL63:
 486 0000 30B5     		push	{r4, r5, lr}
 487              	.LCFI21:
 488              		.cfi_def_cfa_offset 12
 489              		.cfi_offset 4, -12
 490              		.cfi_offset 5, -8
 491              		.cfi_offset 14, -4
 492 0002 85B0     		sub	sp, sp, #20
 493              	.LCFI22:
 494              		.cfi_def_cfa_offset 32
 495 0004 0446     		mov	r4, r0
 496 0006 0D46     		mov	r5, r1
  70:Core/u8g2/u8g2_d_setup.c ****   uint8_t tile_buf_height;
  71:Core/u8g2/u8g2_d_setup.c ****   uint8_t *buf;
  72:Core/u8g2/u8g2_d_setup.c ****   u8g2_SetupDisplay(u8g2, u8x8_d_ssd1305_128x32_adafruit, u8x8_cad_ssd13xx_i2c, byte_cb, gpio_and_d
 497              		.loc 1 72 0
 498 0008 0093     		str	r3, [sp]
 499 000a 1346     		mov	r3, r2
 500              	.LVL64:
 501 000c 084A     		ldr	r2, .L31
 502              	.LVL65:
 503 000e 0949     		ldr	r1, .L31+4
 504              	.LVL66:
 505 0010 FFF7FEFF 		bl	u8x8_Setup
 506              	.LVL67:
  73:Core/u8g2/u8g2_d_setup.c ****   buf = u8g2_m_16_4_1(&tile_buf_height);
 507              		.loc 1 73 0
 508 0014 0DF10F00 		add	r0, sp, #15
 509 0018 FFF7FEFF 		bl	u8g2_m_16_4_1
 510              	.LVL68:
  74:Core/u8g2/u8g2_d_setup.c ****   u8g2_SetupBuffer(u8g2, buf, tile_buf_height, u8g2_ll_hvline_vertical_top_lsb, rotation);
 511              		.loc 1 74 0
ARM GAS  C:\Users\ASUS\AppData\Local\Temp\ccLOtXM9.s 			page 11


 512 001c 9DF80F20 		ldrb	r2, [sp, #15]	@ zero_extendqisi2
 513 0020 0095     		str	r5, [sp]
 514 0022 054B     		ldr	r3, .L31+8
 515 0024 0146     		mov	r1, r0
 516 0026 2046     		mov	r0, r4
 517              	.LVL69:
 518 0028 FFF7FEFF 		bl	u8g2_SetupBuffer
 519              	.LVL70:
  75:Core/u8g2/u8g2_d_setup.c **** }
 520              		.loc 1 75 0
 521 002c 05B0     		add	sp, sp, #20
 522              	.LCFI23:
 523              		.cfi_def_cfa_offset 12
 524              		@ sp needed
 525 002e 30BD     		pop	{r4, r5, pc}
 526              	.LVL71:
 527              	.L32:
 528              		.align	2
 529              	.L31:
 530 0030 00000000 		.word	u8x8_cad_ssd13xx_i2c
 531 0034 00000000 		.word	u8x8_d_ssd1305_128x32_adafruit
 532 0038 00000000 		.word	u8g2_ll_hvline_vertical_top_lsb
 533              		.cfi_endproc
 534              	.LFE7:
 536              		.section	.text.u8g2_Setup_ssd1305_i2c_128x32_noname_2,"ax",%progbits
 537              		.align	1
 538              		.global	u8g2_Setup_ssd1305_i2c_128x32_noname_2
 539              		.syntax unified
 540              		.thumb
 541              		.thumb_func
 542              		.fpu softvfp
 544              	u8g2_Setup_ssd1305_i2c_128x32_noname_2:
 545              	.LFB8:
  76:Core/u8g2/u8g2_d_setup.c **** /* ssd1305 2 */
  77:Core/u8g2/u8g2_d_setup.c **** void u8g2_Setup_ssd1305_i2c_128x32_noname_2(u8g2_t *u8g2, const u8g2_cb_t *rotation, u8x8_msg_cb by
  78:Core/u8g2/u8g2_d_setup.c **** {
 546              		.loc 1 78 0
 547              		.cfi_startproc
 548              		@ args = 0, pretend = 0, frame = 8
 549              		@ frame_needed = 0, uses_anonymous_args = 0
 550              	.LVL72:
 551 0000 30B5     		push	{r4, r5, lr}
 552              	.LCFI24:
 553              		.cfi_def_cfa_offset 12
 554              		.cfi_offset 4, -12
 555              		.cfi_offset 5, -8
 556              		.cfi_offset 14, -4
 557 0002 85B0     		sub	sp, sp, #20
 558              	.LCFI25:
 559              		.cfi_def_cfa_offset 32
 560 0004 0446     		mov	r4, r0
 561 0006 0D46     		mov	r5, r1
  79:Core/u8g2/u8g2_d_setup.c ****   uint8_t tile_buf_height;
  80:Core/u8g2/u8g2_d_setup.c ****   uint8_t *buf;
  81:Core/u8g2/u8g2_d_setup.c ****   u8g2_SetupDisplay(u8g2, u8x8_d_ssd1305_128x32_noname, u8x8_cad_ssd13xx_i2c, byte_cb, gpio_and_del
 562              		.loc 1 81 0
 563 0008 0093     		str	r3, [sp]
ARM GAS  C:\Users\ASUS\AppData\Local\Temp\ccLOtXM9.s 			page 12


 564 000a 1346     		mov	r3, r2
 565              	.LVL73:
 566 000c 084A     		ldr	r2, .L35
 567              	.LVL74:
 568 000e 0949     		ldr	r1, .L35+4
 569              	.LVL75:
 570 0010 FFF7FEFF 		bl	u8x8_Setup
 571              	.LVL76:
  82:Core/u8g2/u8g2_d_setup.c ****   buf = u8g2_m_16_4_2(&tile_buf_height);
 572              		.loc 1 82 0
 573 0014 0DF10F00 		add	r0, sp, #15
 574 0018 FFF7FEFF 		bl	u8g2_m_16_4_2
 575              	.LVL77:
  83:Core/u8g2/u8g2_d_setup.c ****   u8g2_SetupBuffer(u8g2, buf, tile_buf_height, u8g2_ll_hvline_vertical_top_lsb, rotation);
 576              		.loc 1 83 0
 577 001c 9DF80F20 		ldrb	r2, [sp, #15]	@ zero_extendqisi2
 578 0020 0095     		str	r5, [sp]
 579 0022 054B     		ldr	r3, .L35+8
 580 0024 0146     		mov	r1, r0
 581 0026 2046     		mov	r0, r4
 582              	.LVL78:
 583 0028 FFF7FEFF 		bl	u8g2_SetupBuffer
 584              	.LVL79:
  84:Core/u8g2/u8g2_d_setup.c **** }
 585              		.loc 1 84 0
 586 002c 05B0     		add	sp, sp, #20
 587              	.LCFI26:
 588              		.cfi_def_cfa_offset 12
 589              		@ sp needed
 590 002e 30BD     		pop	{r4, r5, pc}
 591              	.LVL80:
 592              	.L36:
 593              		.align	2
 594              	.L35:
 595 0030 00000000 		.word	u8x8_cad_ssd13xx_i2c
 596 0034 00000000 		.word	u8x8_d_ssd1305_128x32_noname
 597 0038 00000000 		.word	u8g2_ll_hvline_vertical_top_lsb
 598              		.cfi_endproc
 599              	.LFE8:
 601              		.section	.text.u8g2_Setup_ssd1305_i2c_128x32_adafruit_2,"ax",%progbits
 602              		.align	1
 603              		.global	u8g2_Setup_ssd1305_i2c_128x32_adafruit_2
 604              		.syntax unified
 605              		.thumb
 606              		.thumb_func
 607              		.fpu softvfp
 609              	u8g2_Setup_ssd1305_i2c_128x32_adafruit_2:
 610              	.LFB9:
  85:Core/u8g2/u8g2_d_setup.c **** void u8g2_Setup_ssd1305_i2c_128x32_adafruit_2(u8g2_t *u8g2, const u8g2_cb_t *rotation, u8x8_msg_cb 
  86:Core/u8g2/u8g2_d_setup.c **** {
 611              		.loc 1 86 0
 612              		.cfi_startproc
 613              		@ args = 0, pretend = 0, frame = 8
 614              		@ frame_needed = 0, uses_anonymous_args = 0
 615              	.LVL81:
 616 0000 30B5     		push	{r4, r5, lr}
 617              	.LCFI27:
ARM GAS  C:\Users\ASUS\AppData\Local\Temp\ccLOtXM9.s 			page 13


 618              		.cfi_def_cfa_offset 12
 619              		.cfi_offset 4, -12
 620              		.cfi_offset 5, -8
 621              		.cfi_offset 14, -4
 622 0002 85B0     		sub	sp, sp, #20
 623              	.LCFI28:
 624              		.cfi_def_cfa_offset 32
 625 0004 0446     		mov	r4, r0
 626 0006 0D46     		mov	r5, r1
  87:Core/u8g2/u8g2_d_setup.c ****   uint8_t tile_buf_height;
  88:Core/u8g2/u8g2_d_setup.c ****   uint8_t *buf;
  89:Core/u8g2/u8g2_d_setup.c ****   u8g2_SetupDisplay(u8g2, u8x8_d_ssd1305_128x32_adafruit, u8x8_cad_ssd13xx_i2c, byte_cb, gpio_and_d
 627              		.loc 1 89 0
 628 0008 0093     		str	r3, [sp]
 629 000a 1346     		mov	r3, r2
 630              	.LVL82:
 631 000c 084A     		ldr	r2, .L39
 632              	.LVL83:
 633 000e 0949     		ldr	r1, .L39+4
 634              	.LVL84:
 635 0010 FFF7FEFF 		bl	u8x8_Setup
 636              	.LVL85:
  90:Core/u8g2/u8g2_d_setup.c ****   buf = u8g2_m_16_4_2(&tile_buf_height);
 637              		.loc 1 90 0
 638 0014 0DF10F00 		add	r0, sp, #15
 639 0018 FFF7FEFF 		bl	u8g2_m_16_4_2
 640              	.LVL86:
  91:Core/u8g2/u8g2_d_setup.c ****   u8g2_SetupBuffer(u8g2, buf, tile_buf_height, u8g2_ll_hvline_vertical_top_lsb, rotation);
 641              		.loc 1 91 0
 642 001c 9DF80F20 		ldrb	r2, [sp, #15]	@ zero_extendqisi2
 643 0020 0095     		str	r5, [sp]
 644 0022 054B     		ldr	r3, .L39+8
 645 0024 0146     		mov	r1, r0
 646 0026 2046     		mov	r0, r4
 647              	.LVL87:
 648 0028 FFF7FEFF 		bl	u8g2_SetupBuffer
 649              	.LVL88:
  92:Core/u8g2/u8g2_d_setup.c **** }
 650              		.loc 1 92 0
 651 002c 05B0     		add	sp, sp, #20
 652              	.LCFI29:
 653              		.cfi_def_cfa_offset 12
 654              		@ sp needed
 655 002e 30BD     		pop	{r4, r5, pc}
 656              	.LVL89:
 657              	.L40:
 658              		.align	2
 659              	.L39:
 660 0030 00000000 		.word	u8x8_cad_ssd13xx_i2c
 661 0034 00000000 		.word	u8x8_d_ssd1305_128x32_adafruit
 662 0038 00000000 		.word	u8g2_ll_hvline_vertical_top_lsb
 663              		.cfi_endproc
 664              	.LFE9:
 666              		.section	.text.u8g2_Setup_ssd1305_i2c_128x32_noname_f,"ax",%progbits
 667              		.align	1
 668              		.global	u8g2_Setup_ssd1305_i2c_128x32_noname_f
 669              		.syntax unified
ARM GAS  C:\Users\ASUS\AppData\Local\Temp\ccLOtXM9.s 			page 14


 670              		.thumb
 671              		.thumb_func
 672              		.fpu softvfp
 674              	u8g2_Setup_ssd1305_i2c_128x32_noname_f:
 675              	.LFB10:
  93:Core/u8g2/u8g2_d_setup.c **** /* ssd1305 f */
  94:Core/u8g2/u8g2_d_setup.c **** void u8g2_Setup_ssd1305_i2c_128x32_noname_f(u8g2_t *u8g2, const u8g2_cb_t *rotation, u8x8_msg_cb by
  95:Core/u8g2/u8g2_d_setup.c **** {
 676              		.loc 1 95 0
 677              		.cfi_startproc
 678              		@ args = 0, pretend = 0, frame = 8
 679              		@ frame_needed = 0, uses_anonymous_args = 0
 680              	.LVL90:
 681 0000 30B5     		push	{r4, r5, lr}
 682              	.LCFI30:
 683              		.cfi_def_cfa_offset 12
 684              		.cfi_offset 4, -12
 685              		.cfi_offset 5, -8
 686              		.cfi_offset 14, -4
 687 0002 85B0     		sub	sp, sp, #20
 688              	.LCFI31:
 689              		.cfi_def_cfa_offset 32
 690 0004 0446     		mov	r4, r0
 691 0006 0D46     		mov	r5, r1
  96:Core/u8g2/u8g2_d_setup.c ****   uint8_t tile_buf_height;
  97:Core/u8g2/u8g2_d_setup.c ****   uint8_t *buf;
  98:Core/u8g2/u8g2_d_setup.c ****   u8g2_SetupDisplay(u8g2, u8x8_d_ssd1305_128x32_noname, u8x8_cad_ssd13xx_i2c, byte_cb, gpio_and_del
 692              		.loc 1 98 0
 693 0008 0093     		str	r3, [sp]
 694 000a 1346     		mov	r3, r2
 695              	.LVL91:
 696 000c 084A     		ldr	r2, .L43
 697              	.LVL92:
 698 000e 0949     		ldr	r1, .L43+4
 699              	.LVL93:
 700 0010 FFF7FEFF 		bl	u8x8_Setup
 701              	.LVL94:
  99:Core/u8g2/u8g2_d_setup.c ****   buf = u8g2_m_16_4_f(&tile_buf_height);
 702              		.loc 1 99 0
 703 0014 0DF10F00 		add	r0, sp, #15
 704 0018 FFF7FEFF 		bl	u8g2_m_16_4_f
 705              	.LVL95:
 100:Core/u8g2/u8g2_d_setup.c ****   u8g2_SetupBuffer(u8g2, buf, tile_buf_height, u8g2_ll_hvline_vertical_top_lsb, rotation);
 706              		.loc 1 100 0
 707 001c 9DF80F20 		ldrb	r2, [sp, #15]	@ zero_extendqisi2
 708 0020 0095     		str	r5, [sp]
 709 0022 054B     		ldr	r3, .L43+8
 710 0024 0146     		mov	r1, r0
 711 0026 2046     		mov	r0, r4
 712              	.LVL96:
 713 0028 FFF7FEFF 		bl	u8g2_SetupBuffer
 714              	.LVL97:
 101:Core/u8g2/u8g2_d_setup.c **** }
 715              		.loc 1 101 0
 716 002c 05B0     		add	sp, sp, #20
 717              	.LCFI32:
 718              		.cfi_def_cfa_offset 12
ARM GAS  C:\Users\ASUS\AppData\Local\Temp\ccLOtXM9.s 			page 15


 719              		@ sp needed
 720 002e 30BD     		pop	{r4, r5, pc}
 721              	.LVL98:
 722              	.L44:
 723              		.align	2
 724              	.L43:
 725 0030 00000000 		.word	u8x8_cad_ssd13xx_i2c
 726 0034 00000000 		.word	u8x8_d_ssd1305_128x32_noname
 727 0038 00000000 		.word	u8g2_ll_hvline_vertical_top_lsb
 728              		.cfi_endproc
 729              	.LFE10:
 731              		.section	.text.u8g2_Setup_ssd1305_i2c_128x32_adafruit_f,"ax",%progbits
 732              		.align	1
 733              		.global	u8g2_Setup_ssd1305_i2c_128x32_adafruit_f
 734              		.syntax unified
 735              		.thumb
 736              		.thumb_func
 737              		.fpu softvfp
 739              	u8g2_Setup_ssd1305_i2c_128x32_adafruit_f:
 740              	.LFB11:
 102:Core/u8g2/u8g2_d_setup.c **** void u8g2_Setup_ssd1305_i2c_128x32_adafruit_f(u8g2_t *u8g2, const u8g2_cb_t *rotation, u8x8_msg_cb 
 103:Core/u8g2/u8g2_d_setup.c **** {
 741              		.loc 1 103 0
 742              		.cfi_startproc
 743              		@ args = 0, pretend = 0, frame = 8
 744              		@ frame_needed = 0, uses_anonymous_args = 0
 745              	.LVL99:
 746 0000 30B5     		push	{r4, r5, lr}
 747              	.LCFI33:
 748              		.cfi_def_cfa_offset 12
 749              		.cfi_offset 4, -12
 750              		.cfi_offset 5, -8
 751              		.cfi_offset 14, -4
 752 0002 85B0     		sub	sp, sp, #20
 753              	.LCFI34:
 754              		.cfi_def_cfa_offset 32
 755 0004 0446     		mov	r4, r0
 756 0006 0D46     		mov	r5, r1
 104:Core/u8g2/u8g2_d_setup.c ****   uint8_t tile_buf_height;
 105:Core/u8g2/u8g2_d_setup.c ****   uint8_t *buf;
 106:Core/u8g2/u8g2_d_setup.c ****   u8g2_SetupDisplay(u8g2, u8x8_d_ssd1305_128x32_adafruit, u8x8_cad_ssd13xx_i2c, byte_cb, gpio_and_d
 757              		.loc 1 106 0
 758 0008 0093     		str	r3, [sp]
 759 000a 1346     		mov	r3, r2
 760              	.LVL100:
 761 000c 084A     		ldr	r2, .L47
 762              	.LVL101:
 763 000e 0949     		ldr	r1, .L47+4
 764              	.LVL102:
 765 0010 FFF7FEFF 		bl	u8x8_Setup
 766              	.LVL103:
 107:Core/u8g2/u8g2_d_setup.c ****   buf = u8g2_m_16_4_f(&tile_buf_height);
 767              		.loc 1 107 0
 768 0014 0DF10F00 		add	r0, sp, #15
 769 0018 FFF7FEFF 		bl	u8g2_m_16_4_f
 770              	.LVL104:
 108:Core/u8g2/u8g2_d_setup.c ****   u8g2_SetupBuffer(u8g2, buf, tile_buf_height, u8g2_ll_hvline_vertical_top_lsb, rotation);
ARM GAS  C:\Users\ASUS\AppData\Local\Temp\ccLOtXM9.s 			page 16


 771              		.loc 1 108 0
 772 001c 9DF80F20 		ldrb	r2, [sp, #15]	@ zero_extendqisi2
 773 0020 0095     		str	r5, [sp]
 774 0022 054B     		ldr	r3, .L47+8
 775 0024 0146     		mov	r1, r0
 776 0026 2046     		mov	r0, r4
 777              	.LVL105:
 778 0028 FFF7FEFF 		bl	u8g2_SetupBuffer
 779              	.LVL106:
 109:Core/u8g2/u8g2_d_setup.c **** }
 780              		.loc 1 109 0
 781 002c 05B0     		add	sp, sp, #20
 782              	.LCFI35:
 783              		.cfi_def_cfa_offset 12
 784              		@ sp needed
 785 002e 30BD     		pop	{r4, r5, pc}
 786              	.LVL107:
 787              	.L48:
 788              		.align	2
 789              	.L47:
 790 0030 00000000 		.word	u8x8_cad_ssd13xx_i2c
 791 0034 00000000 		.word	u8x8_d_ssd1305_128x32_adafruit
 792 0038 00000000 		.word	u8g2_ll_hvline_vertical_top_lsb
 793              		.cfi_endproc
 794              	.LFE11:
 796              		.section	.text.u8g2_Setup_ssd1305_128x64_adafruit_1,"ax",%progbits
 797              		.align	1
 798              		.global	u8g2_Setup_ssd1305_128x64_adafruit_1
 799              		.syntax unified
 800              		.thumb
 801              		.thumb_func
 802              		.fpu softvfp
 804              	u8g2_Setup_ssd1305_128x64_adafruit_1:
 805              	.LFB12:
 110:Core/u8g2/u8g2_d_setup.c **** /* ssd1305 */
 111:Core/u8g2/u8g2_d_setup.c **** /* ssd1305 1 */
 112:Core/u8g2/u8g2_d_setup.c **** void u8g2_Setup_ssd1305_128x64_adafruit_1(u8g2_t *u8g2, const u8g2_cb_t *rotation, u8x8_msg_cb byte
 113:Core/u8g2/u8g2_d_setup.c **** {
 806              		.loc 1 113 0
 807              		.cfi_startproc
 808              		@ args = 0, pretend = 0, frame = 8
 809              		@ frame_needed = 0, uses_anonymous_args = 0
 810              	.LVL108:
 811 0000 30B5     		push	{r4, r5, lr}
 812              	.LCFI36:
 813              		.cfi_def_cfa_offset 12
 814              		.cfi_offset 4, -12
 815              		.cfi_offset 5, -8
 816              		.cfi_offset 14, -4
 817 0002 85B0     		sub	sp, sp, #20
 818              	.LCFI37:
 819              		.cfi_def_cfa_offset 32
 820 0004 0446     		mov	r4, r0
 821 0006 0D46     		mov	r5, r1
 114:Core/u8g2/u8g2_d_setup.c ****   uint8_t tile_buf_height;
 115:Core/u8g2/u8g2_d_setup.c ****   uint8_t *buf;
 116:Core/u8g2/u8g2_d_setup.c ****   u8g2_SetupDisplay(u8g2, u8x8_d_ssd1305_128x64_adafruit, u8x8_cad_001, byte_cb, gpio_and_delay_cb)
ARM GAS  C:\Users\ASUS\AppData\Local\Temp\ccLOtXM9.s 			page 17


 822              		.loc 1 116 0
 823 0008 0093     		str	r3, [sp]
 824 000a 1346     		mov	r3, r2
 825              	.LVL109:
 826 000c 084A     		ldr	r2, .L51
 827              	.LVL110:
 828 000e 0949     		ldr	r1, .L51+4
 829              	.LVL111:
 830 0010 FFF7FEFF 		bl	u8x8_Setup
 831              	.LVL112:
 117:Core/u8g2/u8g2_d_setup.c ****   buf = u8g2_m_16_8_1(&tile_buf_height);
 832              		.loc 1 117 0
 833 0014 0DF10F00 		add	r0, sp, #15
 834 0018 FFF7FEFF 		bl	u8g2_m_16_8_1
 835              	.LVL113:
 118:Core/u8g2/u8g2_d_setup.c ****   u8g2_SetupBuffer(u8g2, buf, tile_buf_height, u8g2_ll_hvline_vertical_top_lsb, rotation);
 836              		.loc 1 118 0
 837 001c 9DF80F20 		ldrb	r2, [sp, #15]	@ zero_extendqisi2
 838 0020 0095     		str	r5, [sp]
 839 0022 054B     		ldr	r3, .L51+8
 840 0024 0146     		mov	r1, r0
 841 0026 2046     		mov	r0, r4
 842              	.LVL114:
 843 0028 FFF7FEFF 		bl	u8g2_SetupBuffer
 844              	.LVL115:
 119:Core/u8g2/u8g2_d_setup.c **** }
 845              		.loc 1 119 0
 846 002c 05B0     		add	sp, sp, #20
 847              	.LCFI38:
 848              		.cfi_def_cfa_offset 12
 849              		@ sp needed
 850 002e 30BD     		pop	{r4, r5, pc}
 851              	.LVL116:
 852              	.L52:
 853              		.align	2
 854              	.L51:
 855 0030 00000000 		.word	u8x8_cad_001
 856 0034 00000000 		.word	u8x8_d_ssd1305_128x64_adafruit
 857 0038 00000000 		.word	u8g2_ll_hvline_vertical_top_lsb
 858              		.cfi_endproc
 859              	.LFE12:
 861              		.section	.text.u8g2_Setup_ssd1305_128x64_adafruit_2,"ax",%progbits
 862              		.align	1
 863              		.global	u8g2_Setup_ssd1305_128x64_adafruit_2
 864              		.syntax unified
 865              		.thumb
 866              		.thumb_func
 867              		.fpu softvfp
 869              	u8g2_Setup_ssd1305_128x64_adafruit_2:
 870              	.LFB13:
 120:Core/u8g2/u8g2_d_setup.c **** /* ssd1305 2 */
 121:Core/u8g2/u8g2_d_setup.c **** void u8g2_Setup_ssd1305_128x64_adafruit_2(u8g2_t *u8g2, const u8g2_cb_t *rotation, u8x8_msg_cb byte
 122:Core/u8g2/u8g2_d_setup.c **** {
 871              		.loc 1 122 0
 872              		.cfi_startproc
 873              		@ args = 0, pretend = 0, frame = 8
 874              		@ frame_needed = 0, uses_anonymous_args = 0
ARM GAS  C:\Users\ASUS\AppData\Local\Temp\ccLOtXM9.s 			page 18


 875              	.LVL117:
 876 0000 30B5     		push	{r4, r5, lr}
 877              	.LCFI39:
 878              		.cfi_def_cfa_offset 12
 879              		.cfi_offset 4, -12
 880              		.cfi_offset 5, -8
 881              		.cfi_offset 14, -4
 882 0002 85B0     		sub	sp, sp, #20
 883              	.LCFI40:
 884              		.cfi_def_cfa_offset 32
 885 0004 0446     		mov	r4, r0
 886 0006 0D46     		mov	r5, r1
 123:Core/u8g2/u8g2_d_setup.c ****   uint8_t tile_buf_height;
 124:Core/u8g2/u8g2_d_setup.c ****   uint8_t *buf;
 125:Core/u8g2/u8g2_d_setup.c ****   u8g2_SetupDisplay(u8g2, u8x8_d_ssd1305_128x64_adafruit, u8x8_cad_001, byte_cb, gpio_and_delay_cb)
 887              		.loc 1 125 0
 888 0008 0093     		str	r3, [sp]
 889 000a 1346     		mov	r3, r2
 890              	.LVL118:
 891 000c 084A     		ldr	r2, .L55
 892              	.LVL119:
 893 000e 0949     		ldr	r1, .L55+4
 894              	.LVL120:
 895 0010 FFF7FEFF 		bl	u8x8_Setup
 896              	.LVL121:
 126:Core/u8g2/u8g2_d_setup.c ****   buf = u8g2_m_16_8_2(&tile_buf_height);
 897              		.loc 1 126 0
 898 0014 0DF10F00 		add	r0, sp, #15
 899 0018 FFF7FEFF 		bl	u8g2_m_16_8_2
 900              	.LVL122:
 127:Core/u8g2/u8g2_d_setup.c ****   u8g2_SetupBuffer(u8g2, buf, tile_buf_height, u8g2_ll_hvline_vertical_top_lsb, rotation);
 901              		.loc 1 127 0
 902 001c 9DF80F20 		ldrb	r2, [sp, #15]	@ zero_extendqisi2
 903 0020 0095     		str	r5, [sp]
 904 0022 054B     		ldr	r3, .L55+8
 905 0024 0146     		mov	r1, r0
 906 0026 2046     		mov	r0, r4
 907              	.LVL123:
 908 0028 FFF7FEFF 		bl	u8g2_SetupBuffer
 909              	.LVL124:
 128:Core/u8g2/u8g2_d_setup.c **** }
 910              		.loc 1 128 0
 911 002c 05B0     		add	sp, sp, #20
 912              	.LCFI41:
 913              		.cfi_def_cfa_offset 12
 914              		@ sp needed
 915 002e 30BD     		pop	{r4, r5, pc}
 916              	.LVL125:
 917              	.L56:
 918              		.align	2
 919              	.L55:
 920 0030 00000000 		.word	u8x8_cad_001
 921 0034 00000000 		.word	u8x8_d_ssd1305_128x64_adafruit
 922 0038 00000000 		.word	u8g2_ll_hvline_vertical_top_lsb
 923              		.cfi_endproc
 924              	.LFE13:
 926              		.section	.text.u8g2_Setup_ssd1305_128x64_adafruit_f,"ax",%progbits
ARM GAS  C:\Users\ASUS\AppData\Local\Temp\ccLOtXM9.s 			page 19


 927              		.align	1
 928              		.global	u8g2_Setup_ssd1305_128x64_adafruit_f
 929              		.syntax unified
 930              		.thumb
 931              		.thumb_func
 932              		.fpu softvfp
 934              	u8g2_Setup_ssd1305_128x64_adafruit_f:
 935              	.LFB14:
 129:Core/u8g2/u8g2_d_setup.c **** /* ssd1305 f */
 130:Core/u8g2/u8g2_d_setup.c **** void u8g2_Setup_ssd1305_128x64_adafruit_f(u8g2_t *u8g2, const u8g2_cb_t *rotation, u8x8_msg_cb byte
 131:Core/u8g2/u8g2_d_setup.c **** {
 936              		.loc 1 131 0
 937              		.cfi_startproc
 938              		@ args = 0, pretend = 0, frame = 8
 939              		@ frame_needed = 0, uses_anonymous_args = 0
 940              	.LVL126:
 941 0000 30B5     		push	{r4, r5, lr}
 942              	.LCFI42:
 943              		.cfi_def_cfa_offset 12
 944              		.cfi_offset 4, -12
 945              		.cfi_offset 5, -8
 946              		.cfi_offset 14, -4
 947 0002 85B0     		sub	sp, sp, #20
 948              	.LCFI43:
 949              		.cfi_def_cfa_offset 32
 950 0004 0446     		mov	r4, r0
 951 0006 0D46     		mov	r5, r1
 132:Core/u8g2/u8g2_d_setup.c ****   uint8_t tile_buf_height;
 133:Core/u8g2/u8g2_d_setup.c ****   uint8_t *buf;
 134:Core/u8g2/u8g2_d_setup.c ****   u8g2_SetupDisplay(u8g2, u8x8_d_ssd1305_128x64_adafruit, u8x8_cad_001, byte_cb, gpio_and_delay_cb)
 952              		.loc 1 134 0
 953 0008 0093     		str	r3, [sp]
 954 000a 1346     		mov	r3, r2
 955              	.LVL127:
 956 000c 084A     		ldr	r2, .L59
 957              	.LVL128:
 958 000e 0949     		ldr	r1, .L59+4
 959              	.LVL129:
 960 0010 FFF7FEFF 		bl	u8x8_Setup
 961              	.LVL130:
 135:Core/u8g2/u8g2_d_setup.c ****   buf = u8g2_m_16_8_f(&tile_buf_height);
 962              		.loc 1 135 0
 963 0014 0DF10F00 		add	r0, sp, #15
 964 0018 FFF7FEFF 		bl	u8g2_m_16_8_f
 965              	.LVL131:
 136:Core/u8g2/u8g2_d_setup.c ****   u8g2_SetupBuffer(u8g2, buf, tile_buf_height, u8g2_ll_hvline_vertical_top_lsb, rotation);
 966              		.loc 1 136 0
 967 001c 9DF80F20 		ldrb	r2, [sp, #15]	@ zero_extendqisi2
 968 0020 0095     		str	r5, [sp]
 969 0022 054B     		ldr	r3, .L59+8
 970 0024 0146     		mov	r1, r0
 971 0026 2046     		mov	r0, r4
 972              	.LVL132:
 973 0028 FFF7FEFF 		bl	u8g2_SetupBuffer
 974              	.LVL133:
 137:Core/u8g2/u8g2_d_setup.c **** }
 975              		.loc 1 137 0
ARM GAS  C:\Users\ASUS\AppData\Local\Temp\ccLOtXM9.s 			page 20


 976 002c 05B0     		add	sp, sp, #20
 977              	.LCFI44:
 978              		.cfi_def_cfa_offset 12
 979              		@ sp needed
 980 002e 30BD     		pop	{r4, r5, pc}
 981              	.LVL134:
 982              	.L60:
 983              		.align	2
 984              	.L59:
 985 0030 00000000 		.word	u8x8_cad_001
 986 0034 00000000 		.word	u8x8_d_ssd1305_128x64_adafruit
 987 0038 00000000 		.word	u8g2_ll_hvline_vertical_top_lsb
 988              		.cfi_endproc
 989              	.LFE14:
 991              		.section	.text.u8g2_Setup_ssd1305_i2c_128x64_adafruit_1,"ax",%progbits
 992              		.align	1
 993              		.global	u8g2_Setup_ssd1305_i2c_128x64_adafruit_1
 994              		.syntax unified
 995              		.thumb
 996              		.thumb_func
 997              		.fpu softvfp
 999              	u8g2_Setup_ssd1305_i2c_128x64_adafruit_1:
 1000              	.LFB15:
 138:Core/u8g2/u8g2_d_setup.c **** /* ssd1305 */
 139:Core/u8g2/u8g2_d_setup.c **** /* ssd1305 1 */
 140:Core/u8g2/u8g2_d_setup.c **** void u8g2_Setup_ssd1305_i2c_128x64_adafruit_1(u8g2_t *u8g2, const u8g2_cb_t *rotation, u8x8_msg_cb 
 141:Core/u8g2/u8g2_d_setup.c **** {
 1001              		.loc 1 141 0
 1002              		.cfi_startproc
 1003              		@ args = 0, pretend = 0, frame = 8
 1004              		@ frame_needed = 0, uses_anonymous_args = 0
 1005              	.LVL135:
 1006 0000 30B5     		push	{r4, r5, lr}
 1007              	.LCFI45:
 1008              		.cfi_def_cfa_offset 12
 1009              		.cfi_offset 4, -12
 1010              		.cfi_offset 5, -8
 1011              		.cfi_offset 14, -4
 1012 0002 85B0     		sub	sp, sp, #20
 1013              	.LCFI46:
 1014              		.cfi_def_cfa_offset 32
 1015 0004 0446     		mov	r4, r0
 1016 0006 0D46     		mov	r5, r1
 142:Core/u8g2/u8g2_d_setup.c ****   uint8_t tile_buf_height;
 143:Core/u8g2/u8g2_d_setup.c ****   uint8_t *buf;
 144:Core/u8g2/u8g2_d_setup.c ****   u8g2_SetupDisplay(u8g2, u8x8_d_ssd1305_128x64_adafruit, u8x8_cad_ssd13xx_i2c, byte_cb, gpio_and_d
 1017              		.loc 1 144 0
 1018 0008 0093     		str	r3, [sp]
 1019 000a 1346     		mov	r3, r2
 1020              	.LVL136:
 1021 000c 084A     		ldr	r2, .L63
 1022              	.LVL137:
 1023 000e 0949     		ldr	r1, .L63+4
 1024              	.LVL138:
 1025 0010 FFF7FEFF 		bl	u8x8_Setup
 1026              	.LVL139:
 145:Core/u8g2/u8g2_d_setup.c ****   buf = u8g2_m_16_8_1(&tile_buf_height);
ARM GAS  C:\Users\ASUS\AppData\Local\Temp\ccLOtXM9.s 			page 21


 1027              		.loc 1 145 0
 1028 0014 0DF10F00 		add	r0, sp, #15
 1029 0018 FFF7FEFF 		bl	u8g2_m_16_8_1
 1030              	.LVL140:
 146:Core/u8g2/u8g2_d_setup.c ****   u8g2_SetupBuffer(u8g2, buf, tile_buf_height, u8g2_ll_hvline_vertical_top_lsb, rotation);
 1031              		.loc 1 146 0
 1032 001c 9DF80F20 		ldrb	r2, [sp, #15]	@ zero_extendqisi2
 1033 0020 0095     		str	r5, [sp]
 1034 0022 054B     		ldr	r3, .L63+8
 1035 0024 0146     		mov	r1, r0
 1036 0026 2046     		mov	r0, r4
 1037              	.LVL141:
 1038 0028 FFF7FEFF 		bl	u8g2_SetupBuffer
 1039              	.LVL142:
 147:Core/u8g2/u8g2_d_setup.c **** }
 1040              		.loc 1 147 0
 1041 002c 05B0     		add	sp, sp, #20
 1042              	.LCFI47:
 1043              		.cfi_def_cfa_offset 12
 1044              		@ sp needed
 1045 002e 30BD     		pop	{r4, r5, pc}
 1046              	.LVL143:
 1047              	.L64:
 1048              		.align	2
 1049              	.L63:
 1050 0030 00000000 		.word	u8x8_cad_ssd13xx_i2c
 1051 0034 00000000 		.word	u8x8_d_ssd1305_128x64_adafruit
 1052 0038 00000000 		.word	u8g2_ll_hvline_vertical_top_lsb
 1053              		.cfi_endproc
 1054              	.LFE15:
 1056              		.section	.text.u8g2_Setup_ssd1305_i2c_128x64_adafruit_2,"ax",%progbits
 1057              		.align	1
 1058              		.global	u8g2_Setup_ssd1305_i2c_128x64_adafruit_2
 1059              		.syntax unified
 1060              		.thumb
 1061              		.thumb_func
 1062              		.fpu softvfp
 1064              	u8g2_Setup_ssd1305_i2c_128x64_adafruit_2:
 1065              	.LFB16:
 148:Core/u8g2/u8g2_d_setup.c **** /* ssd1305 2 */
 149:Core/u8g2/u8g2_d_setup.c **** void u8g2_Setup_ssd1305_i2c_128x64_adafruit_2(u8g2_t *u8g2, const u8g2_cb_t *rotation, u8x8_msg_cb 
 150:Core/u8g2/u8g2_d_setup.c **** {
 1066              		.loc 1 150 0
 1067              		.cfi_startproc
 1068              		@ args = 0, pretend = 0, frame = 8
 1069              		@ frame_needed = 0, uses_anonymous_args = 0
 1070              	.LVL144:
 1071 0000 30B5     		push	{r4, r5, lr}
 1072              	.LCFI48:
 1073              		.cfi_def_cfa_offset 12
 1074              		.cfi_offset 4, -12
 1075              		.cfi_offset 5, -8
 1076              		.cfi_offset 14, -4
 1077 0002 85B0     		sub	sp, sp, #20
 1078              	.LCFI49:
 1079              		.cfi_def_cfa_offset 32
 1080 0004 0446     		mov	r4, r0
ARM GAS  C:\Users\ASUS\AppData\Local\Temp\ccLOtXM9.s 			page 22


 1081 0006 0D46     		mov	r5, r1
 151:Core/u8g2/u8g2_d_setup.c ****   uint8_t tile_buf_height;
 152:Core/u8g2/u8g2_d_setup.c ****   uint8_t *buf;
 153:Core/u8g2/u8g2_d_setup.c ****   u8g2_SetupDisplay(u8g2, u8x8_d_ssd1305_128x64_adafruit, u8x8_cad_ssd13xx_i2c, byte_cb, gpio_and_d
 1082              		.loc 1 153 0
 1083 0008 0093     		str	r3, [sp]
 1084 000a 1346     		mov	r3, r2
 1085              	.LVL145:
 1086 000c 084A     		ldr	r2, .L67
 1087              	.LVL146:
 1088 000e 0949     		ldr	r1, .L67+4
 1089              	.LVL147:
 1090 0010 FFF7FEFF 		bl	u8x8_Setup
 1091              	.LVL148:
 154:Core/u8g2/u8g2_d_setup.c ****   buf = u8g2_m_16_8_2(&tile_buf_height);
 1092              		.loc 1 154 0
 1093 0014 0DF10F00 		add	r0, sp, #15
 1094 0018 FFF7FEFF 		bl	u8g2_m_16_8_2
 1095              	.LVL149:
 155:Core/u8g2/u8g2_d_setup.c ****   u8g2_SetupBuffer(u8g2, buf, tile_buf_height, u8g2_ll_hvline_vertical_top_lsb, rotation);
 1096              		.loc 1 155 0
 1097 001c 9DF80F20 		ldrb	r2, [sp, #15]	@ zero_extendqisi2
 1098 0020 0095     		str	r5, [sp]
 1099 0022 054B     		ldr	r3, .L67+8
 1100 0024 0146     		mov	r1, r0
 1101 0026 2046     		mov	r0, r4
 1102              	.LVL150:
 1103 0028 FFF7FEFF 		bl	u8g2_SetupBuffer
 1104              	.LVL151:
 156:Core/u8g2/u8g2_d_setup.c **** }
 1105              		.loc 1 156 0
 1106 002c 05B0     		add	sp, sp, #20
 1107              	.LCFI50:
 1108              		.cfi_def_cfa_offset 12
 1109              		@ sp needed
 1110 002e 30BD     		pop	{r4, r5, pc}
 1111              	.LVL152:
 1112              	.L68:
 1113              		.align	2
 1114              	.L67:
 1115 0030 00000000 		.word	u8x8_cad_ssd13xx_i2c
 1116 0034 00000000 		.word	u8x8_d_ssd1305_128x64_adafruit
 1117 0038 00000000 		.word	u8g2_ll_hvline_vertical_top_lsb
 1118              		.cfi_endproc
 1119              	.LFE16:
 1121              		.section	.text.u8g2_Setup_ssd1305_i2c_128x64_adafruit_f,"ax",%progbits
 1122              		.align	1
 1123              		.global	u8g2_Setup_ssd1305_i2c_128x64_adafruit_f
 1124              		.syntax unified
 1125              		.thumb
 1126              		.thumb_func
 1127              		.fpu softvfp
 1129              	u8g2_Setup_ssd1305_i2c_128x64_adafruit_f:
 1130              	.LFB17:
 157:Core/u8g2/u8g2_d_setup.c **** /* ssd1305 f */
 158:Core/u8g2/u8g2_d_setup.c **** void u8g2_Setup_ssd1305_i2c_128x64_adafruit_f(u8g2_t *u8g2, const u8g2_cb_t *rotation, u8x8_msg_cb 
 159:Core/u8g2/u8g2_d_setup.c **** {
ARM GAS  C:\Users\ASUS\AppData\Local\Temp\ccLOtXM9.s 			page 23


 1131              		.loc 1 159 0
 1132              		.cfi_startproc
 1133              		@ args = 0, pretend = 0, frame = 8
 1134              		@ frame_needed = 0, uses_anonymous_args = 0
 1135              	.LVL153:
 1136 0000 30B5     		push	{r4, r5, lr}
 1137              	.LCFI51:
 1138              		.cfi_def_cfa_offset 12
 1139              		.cfi_offset 4, -12
 1140              		.cfi_offset 5, -8
 1141              		.cfi_offset 14, -4
 1142 0002 85B0     		sub	sp, sp, #20
 1143              	.LCFI52:
 1144              		.cfi_def_cfa_offset 32
 1145 0004 0446     		mov	r4, r0
 1146 0006 0D46     		mov	r5, r1
 160:Core/u8g2/u8g2_d_setup.c ****   uint8_t tile_buf_height;
 161:Core/u8g2/u8g2_d_setup.c ****   uint8_t *buf;
 162:Core/u8g2/u8g2_d_setup.c ****   u8g2_SetupDisplay(u8g2, u8x8_d_ssd1305_128x64_adafruit, u8x8_cad_ssd13xx_i2c, byte_cb, gpio_and_d
 1147              		.loc 1 162 0
 1148 0008 0093     		str	r3, [sp]
 1149 000a 1346     		mov	r3, r2
 1150              	.LVL154:
 1151 000c 084A     		ldr	r2, .L71
 1152              	.LVL155:
 1153 000e 0949     		ldr	r1, .L71+4
 1154              	.LVL156:
 1155 0010 FFF7FEFF 		bl	u8x8_Setup
 1156              	.LVL157:
 163:Core/u8g2/u8g2_d_setup.c ****   buf = u8g2_m_16_8_f(&tile_buf_height);
 1157              		.loc 1 163 0
 1158 0014 0DF10F00 		add	r0, sp, #15
 1159 0018 FFF7FEFF 		bl	u8g2_m_16_8_f
 1160              	.LVL158:
 164:Core/u8g2/u8g2_d_setup.c ****   u8g2_SetupBuffer(u8g2, buf, tile_buf_height, u8g2_ll_hvline_vertical_top_lsb, rotation);
 1161              		.loc 1 164 0
 1162 001c 9DF80F20 		ldrb	r2, [sp, #15]	@ zero_extendqisi2
 1163 0020 0095     		str	r5, [sp]
 1164 0022 054B     		ldr	r3, .L71+8
 1165 0024 0146     		mov	r1, r0
 1166 0026 2046     		mov	r0, r4
 1167              	.LVL159:
 1168 0028 FFF7FEFF 		bl	u8g2_SetupBuffer
 1169              	.LVL160:
 165:Core/u8g2/u8g2_d_setup.c **** }
 1170              		.loc 1 165 0
 1171 002c 05B0     		add	sp, sp, #20
 1172              	.LCFI53:
 1173              		.cfi_def_cfa_offset 12
 1174              		@ sp needed
 1175 002e 30BD     		pop	{r4, r5, pc}
 1176              	.LVL161:
 1177              	.L72:
 1178              		.align	2
 1179              	.L71:
 1180 0030 00000000 		.word	u8x8_cad_ssd13xx_i2c
 1181 0034 00000000 		.word	u8x8_d_ssd1305_128x64_adafruit
ARM GAS  C:\Users\ASUS\AppData\Local\Temp\ccLOtXM9.s 			page 24


 1182 0038 00000000 		.word	u8g2_ll_hvline_vertical_top_lsb
 1183              		.cfi_endproc
 1184              	.LFE17:
 1186              		.section	.text.u8g2_Setup_ssd1306_128x64_noname_1,"ax",%progbits
 1187              		.align	1
 1188              		.global	u8g2_Setup_ssd1306_128x64_noname_1
 1189              		.syntax unified
 1190              		.thumb
 1191              		.thumb_func
 1192              		.fpu softvfp
 1194              	u8g2_Setup_ssd1306_128x64_noname_1:
 1195              	.LFB18:
 166:Core/u8g2/u8g2_d_setup.c **** /* ssd1306 */
 167:Core/u8g2/u8g2_d_setup.c **** /* ssd1306 1 */
 168:Core/u8g2/u8g2_d_setup.c **** void u8g2_Setup_ssd1306_128x64_noname_1(u8g2_t *u8g2, const u8g2_cb_t *rotation, u8x8_msg_cb byte_c
 169:Core/u8g2/u8g2_d_setup.c **** {
 1196              		.loc 1 169 0
 1197              		.cfi_startproc
 1198              		@ args = 0, pretend = 0, frame = 8
 1199              		@ frame_needed = 0, uses_anonymous_args = 0
 1200              	.LVL162:
 1201 0000 30B5     		push	{r4, r5, lr}
 1202              	.LCFI54:
 1203              		.cfi_def_cfa_offset 12
 1204              		.cfi_offset 4, -12
 1205              		.cfi_offset 5, -8
 1206              		.cfi_offset 14, -4
 1207 0002 85B0     		sub	sp, sp, #20
 1208              	.LCFI55:
 1209              		.cfi_def_cfa_offset 32
 1210 0004 0446     		mov	r4, r0
 1211 0006 0D46     		mov	r5, r1
 170:Core/u8g2/u8g2_d_setup.c ****   uint8_t tile_buf_height;
 171:Core/u8g2/u8g2_d_setup.c ****   uint8_t *buf;
 172:Core/u8g2/u8g2_d_setup.c ****   u8g2_SetupDisplay(u8g2, u8x8_d_ssd1306_128x64_noname, u8x8_cad_001, byte_cb, gpio_and_delay_cb);
 1212              		.loc 1 172 0
 1213 0008 0093     		str	r3, [sp]
 1214 000a 1346     		mov	r3, r2
 1215              	.LVL163:
 1216 000c 084A     		ldr	r2, .L75
 1217              	.LVL164:
 1218 000e 0949     		ldr	r1, .L75+4
 1219              	.LVL165:
 1220 0010 FFF7FEFF 		bl	u8x8_Setup
 1221              	.LVL166:
 173:Core/u8g2/u8g2_d_setup.c ****   buf = u8g2_m_16_8_1(&tile_buf_height);
 1222              		.loc 1 173 0
 1223 0014 0DF10F00 		add	r0, sp, #15
 1224 0018 FFF7FEFF 		bl	u8g2_m_16_8_1
 1225              	.LVL167:
 174:Core/u8g2/u8g2_d_setup.c ****   u8g2_SetupBuffer(u8g2, buf, tile_buf_height, u8g2_ll_hvline_vertical_top_lsb, rotation);
 1226              		.loc 1 174 0
 1227 001c 9DF80F20 		ldrb	r2, [sp, #15]	@ zero_extendqisi2
 1228 0020 0095     		str	r5, [sp]
 1229 0022 054B     		ldr	r3, .L75+8
 1230 0024 0146     		mov	r1, r0
 1231 0026 2046     		mov	r0, r4
ARM GAS  C:\Users\ASUS\AppData\Local\Temp\ccLOtXM9.s 			page 25


 1232              	.LVL168:
 1233 0028 FFF7FEFF 		bl	u8g2_SetupBuffer
 1234              	.LVL169:
 175:Core/u8g2/u8g2_d_setup.c **** }
 1235              		.loc 1 175 0
 1236 002c 05B0     		add	sp, sp, #20
 1237              	.LCFI56:
 1238              		.cfi_def_cfa_offset 12
 1239              		@ sp needed
 1240 002e 30BD     		pop	{r4, r5, pc}
 1241              	.LVL170:
 1242              	.L76:
 1243              		.align	2
 1244              	.L75:
 1245 0030 00000000 		.word	u8x8_cad_001
 1246 0034 00000000 		.word	u8x8_d_ssd1306_128x64_noname
 1247 0038 00000000 		.word	u8g2_ll_hvline_vertical_top_lsb
 1248              		.cfi_endproc
 1249              	.LFE18:
 1251              		.section	.text.u8g2_Setup_ssd1306_128x64_vcomh0_1,"ax",%progbits
 1252              		.align	1
 1253              		.global	u8g2_Setup_ssd1306_128x64_vcomh0_1
 1254              		.syntax unified
 1255              		.thumb
 1256              		.thumb_func
 1257              		.fpu softvfp
 1259              	u8g2_Setup_ssd1306_128x64_vcomh0_1:
 1260              	.LFB19:
 176:Core/u8g2/u8g2_d_setup.c **** void u8g2_Setup_ssd1306_128x64_vcomh0_1(u8g2_t *u8g2, const u8g2_cb_t *rotation, u8x8_msg_cb byte_c
 177:Core/u8g2/u8g2_d_setup.c **** {
 1261              		.loc 1 177 0
 1262              		.cfi_startproc
 1263              		@ args = 0, pretend = 0, frame = 8
 1264              		@ frame_needed = 0, uses_anonymous_args = 0
 1265              	.LVL171:
 1266 0000 30B5     		push	{r4, r5, lr}
 1267              	.LCFI57:
 1268              		.cfi_def_cfa_offset 12
 1269              		.cfi_offset 4, -12
 1270              		.cfi_offset 5, -8
 1271              		.cfi_offset 14, -4
 1272 0002 85B0     		sub	sp, sp, #20
 1273              	.LCFI58:
 1274              		.cfi_def_cfa_offset 32
 1275 0004 0446     		mov	r4, r0
 1276 0006 0D46     		mov	r5, r1
 178:Core/u8g2/u8g2_d_setup.c ****   uint8_t tile_buf_height;
 179:Core/u8g2/u8g2_d_setup.c ****   uint8_t *buf;
 180:Core/u8g2/u8g2_d_setup.c ****   u8g2_SetupDisplay(u8g2, u8x8_d_ssd1306_128x64_vcomh0, u8x8_cad_001, byte_cb, gpio_and_delay_cb);
 1277              		.loc 1 180 0
 1278 0008 0093     		str	r3, [sp]
 1279 000a 1346     		mov	r3, r2
 1280              	.LVL172:
 1281 000c 084A     		ldr	r2, .L79
 1282              	.LVL173:
 1283 000e 0949     		ldr	r1, .L79+4
 1284              	.LVL174:
ARM GAS  C:\Users\ASUS\AppData\Local\Temp\ccLOtXM9.s 			page 26


 1285 0010 FFF7FEFF 		bl	u8x8_Setup
 1286              	.LVL175:
 181:Core/u8g2/u8g2_d_setup.c ****   buf = u8g2_m_16_8_1(&tile_buf_height);
 1287              		.loc 1 181 0
 1288 0014 0DF10F00 		add	r0, sp, #15
 1289 0018 FFF7FEFF 		bl	u8g2_m_16_8_1
 1290              	.LVL176:
 182:Core/u8g2/u8g2_d_setup.c ****   u8g2_SetupBuffer(u8g2, buf, tile_buf_height, u8g2_ll_hvline_vertical_top_lsb, rotation);
 1291              		.loc 1 182 0
 1292 001c 9DF80F20 		ldrb	r2, [sp, #15]	@ zero_extendqisi2
 1293 0020 0095     		str	r5, [sp]
 1294 0022 054B     		ldr	r3, .L79+8
 1295 0024 0146     		mov	r1, r0
 1296 0026 2046     		mov	r0, r4
 1297              	.LVL177:
 1298 0028 FFF7FEFF 		bl	u8g2_SetupBuffer
 1299              	.LVL178:
 183:Core/u8g2/u8g2_d_setup.c **** }
 1300              		.loc 1 183 0
 1301 002c 05B0     		add	sp, sp, #20
 1302              	.LCFI59:
 1303              		.cfi_def_cfa_offset 12
 1304              		@ sp needed
 1305 002e 30BD     		pop	{r4, r5, pc}
 1306              	.LVL179:
 1307              	.L80:
 1308              		.align	2
 1309              	.L79:
 1310 0030 00000000 		.word	u8x8_cad_001
 1311 0034 00000000 		.word	u8x8_d_ssd1306_128x64_vcomh0
 1312 0038 00000000 		.word	u8g2_ll_hvline_vertical_top_lsb
 1313              		.cfi_endproc
 1314              	.LFE19:
 1316              		.section	.text.u8g2_Setup_ssd1306_128x64_alt0_1,"ax",%progbits
 1317              		.align	1
 1318              		.global	u8g2_Setup_ssd1306_128x64_alt0_1
 1319              		.syntax unified
 1320              		.thumb
 1321              		.thumb_func
 1322              		.fpu softvfp
 1324              	u8g2_Setup_ssd1306_128x64_alt0_1:
 1325              	.LFB20:
 184:Core/u8g2/u8g2_d_setup.c **** void u8g2_Setup_ssd1306_128x64_alt0_1(u8g2_t *u8g2, const u8g2_cb_t *rotation, u8x8_msg_cb byte_cb,
 185:Core/u8g2/u8g2_d_setup.c **** {
 1326              		.loc 1 185 0
 1327              		.cfi_startproc
 1328              		@ args = 0, pretend = 0, frame = 8
 1329              		@ frame_needed = 0, uses_anonymous_args = 0
 1330              	.LVL180:
 1331 0000 30B5     		push	{r4, r5, lr}
 1332              	.LCFI60:
 1333              		.cfi_def_cfa_offset 12
 1334              		.cfi_offset 4, -12
 1335              		.cfi_offset 5, -8
 1336              		.cfi_offset 14, -4
 1337 0002 85B0     		sub	sp, sp, #20
 1338              	.LCFI61:
ARM GAS  C:\Users\ASUS\AppData\Local\Temp\ccLOtXM9.s 			page 27


 1339              		.cfi_def_cfa_offset 32
 1340 0004 0446     		mov	r4, r0
 1341 0006 0D46     		mov	r5, r1
 186:Core/u8g2/u8g2_d_setup.c ****   uint8_t tile_buf_height;
 187:Core/u8g2/u8g2_d_setup.c ****   uint8_t *buf;
 188:Core/u8g2/u8g2_d_setup.c ****   u8g2_SetupDisplay(u8g2, u8x8_d_ssd1306_128x64_alt0, u8x8_cad_001, byte_cb, gpio_and_delay_cb);
 1342              		.loc 1 188 0
 1343 0008 0093     		str	r3, [sp]
 1344 000a 1346     		mov	r3, r2
 1345              	.LVL181:
 1346 000c 084A     		ldr	r2, .L83
 1347              	.LVL182:
 1348 000e 0949     		ldr	r1, .L83+4
 1349              	.LVL183:
 1350 0010 FFF7FEFF 		bl	u8x8_Setup
 1351              	.LVL184:
 189:Core/u8g2/u8g2_d_setup.c ****   buf = u8g2_m_16_8_1(&tile_buf_height);
 1352              		.loc 1 189 0
 1353 0014 0DF10F00 		add	r0, sp, #15
 1354 0018 FFF7FEFF 		bl	u8g2_m_16_8_1
 1355              	.LVL185:
 190:Core/u8g2/u8g2_d_setup.c ****   u8g2_SetupBuffer(u8g2, buf, tile_buf_height, u8g2_ll_hvline_vertical_top_lsb, rotation);
 1356              		.loc 1 190 0
 1357 001c 9DF80F20 		ldrb	r2, [sp, #15]	@ zero_extendqisi2
 1358 0020 0095     		str	r5, [sp]
 1359 0022 054B     		ldr	r3, .L83+8
 1360 0024 0146     		mov	r1, r0
 1361 0026 2046     		mov	r0, r4
 1362              	.LVL186:
 1363 0028 FFF7FEFF 		bl	u8g2_SetupBuffer
 1364              	.LVL187:
 191:Core/u8g2/u8g2_d_setup.c **** }
 1365              		.loc 1 191 0
 1366 002c 05B0     		add	sp, sp, #20
 1367              	.LCFI62:
 1368              		.cfi_def_cfa_offset 12
 1369              		@ sp needed
 1370 002e 30BD     		pop	{r4, r5, pc}
 1371              	.LVL188:
 1372              	.L84:
 1373              		.align	2
 1374              	.L83:
 1375 0030 00000000 		.word	u8x8_cad_001
 1376 0034 00000000 		.word	u8x8_d_ssd1306_128x64_alt0
 1377 0038 00000000 		.word	u8g2_ll_hvline_vertical_top_lsb
 1378              		.cfi_endproc
 1379              	.LFE20:
 1381              		.section	.text.u8g2_Setup_ssd1306_128x64_noname_2,"ax",%progbits
 1382              		.align	1
 1383              		.global	u8g2_Setup_ssd1306_128x64_noname_2
 1384              		.syntax unified
 1385              		.thumb
 1386              		.thumb_func
 1387              		.fpu softvfp
 1389              	u8g2_Setup_ssd1306_128x64_noname_2:
 1390              	.LFB21:
 192:Core/u8g2/u8g2_d_setup.c **** /* ssd1306 2 */
ARM GAS  C:\Users\ASUS\AppData\Local\Temp\ccLOtXM9.s 			page 28


 193:Core/u8g2/u8g2_d_setup.c **** void u8g2_Setup_ssd1306_128x64_noname_2(u8g2_t *u8g2, const u8g2_cb_t *rotation, u8x8_msg_cb byte_c
 194:Core/u8g2/u8g2_d_setup.c **** {
 1391              		.loc 1 194 0
 1392              		.cfi_startproc
 1393              		@ args = 0, pretend = 0, frame = 8
 1394              		@ frame_needed = 0, uses_anonymous_args = 0
 1395              	.LVL189:
 1396 0000 30B5     		push	{r4, r5, lr}
 1397              	.LCFI63:
 1398              		.cfi_def_cfa_offset 12
 1399              		.cfi_offset 4, -12
 1400              		.cfi_offset 5, -8
 1401              		.cfi_offset 14, -4
 1402 0002 85B0     		sub	sp, sp, #20
 1403              	.LCFI64:
 1404              		.cfi_def_cfa_offset 32
 1405 0004 0446     		mov	r4, r0
 1406 0006 0D46     		mov	r5, r1
 195:Core/u8g2/u8g2_d_setup.c ****   uint8_t tile_buf_height;
 196:Core/u8g2/u8g2_d_setup.c ****   uint8_t *buf;
 197:Core/u8g2/u8g2_d_setup.c ****   u8g2_SetupDisplay(u8g2, u8x8_d_ssd1306_128x64_noname, u8x8_cad_001, byte_cb, gpio_and_delay_cb);
 1407              		.loc 1 197 0
 1408 0008 0093     		str	r3, [sp]
 1409 000a 1346     		mov	r3, r2
 1410              	.LVL190:
 1411 000c 084A     		ldr	r2, .L87
 1412              	.LVL191:
 1413 000e 0949     		ldr	r1, .L87+4
 1414              	.LVL192:
 1415 0010 FFF7FEFF 		bl	u8x8_Setup
 1416              	.LVL193:
 198:Core/u8g2/u8g2_d_setup.c ****   buf = u8g2_m_16_8_2(&tile_buf_height);
 1417              		.loc 1 198 0
 1418 0014 0DF10F00 		add	r0, sp, #15
 1419 0018 FFF7FEFF 		bl	u8g2_m_16_8_2
 1420              	.LVL194:
 199:Core/u8g2/u8g2_d_setup.c ****   u8g2_SetupBuffer(u8g2, buf, tile_buf_height, u8g2_ll_hvline_vertical_top_lsb, rotation);
 1421              		.loc 1 199 0
 1422 001c 9DF80F20 		ldrb	r2, [sp, #15]	@ zero_extendqisi2
 1423 0020 0095     		str	r5, [sp]
 1424 0022 054B     		ldr	r3, .L87+8
 1425 0024 0146     		mov	r1, r0
 1426 0026 2046     		mov	r0, r4
 1427              	.LVL195:
 1428 0028 FFF7FEFF 		bl	u8g2_SetupBuffer
 1429              	.LVL196:
 200:Core/u8g2/u8g2_d_setup.c **** }
 1430              		.loc 1 200 0
 1431 002c 05B0     		add	sp, sp, #20
 1432              	.LCFI65:
 1433              		.cfi_def_cfa_offset 12
 1434              		@ sp needed
 1435 002e 30BD     		pop	{r4, r5, pc}
 1436              	.LVL197:
 1437              	.L88:
 1438              		.align	2
 1439              	.L87:
ARM GAS  C:\Users\ASUS\AppData\Local\Temp\ccLOtXM9.s 			page 29


 1440 0030 00000000 		.word	u8x8_cad_001
 1441 0034 00000000 		.word	u8x8_d_ssd1306_128x64_noname
 1442 0038 00000000 		.word	u8g2_ll_hvline_vertical_top_lsb
 1443              		.cfi_endproc
 1444              	.LFE21:
 1446              		.section	.text.u8g2_Setup_ssd1306_128x64_vcomh0_2,"ax",%progbits
 1447              		.align	1
 1448              		.global	u8g2_Setup_ssd1306_128x64_vcomh0_2
 1449              		.syntax unified
 1450              		.thumb
 1451              		.thumb_func
 1452              		.fpu softvfp
 1454              	u8g2_Setup_ssd1306_128x64_vcomh0_2:
 1455              	.LFB22:
 201:Core/u8g2/u8g2_d_setup.c **** void u8g2_Setup_ssd1306_128x64_vcomh0_2(u8g2_t *u8g2, const u8g2_cb_t *rotation, u8x8_msg_cb byte_c
 202:Core/u8g2/u8g2_d_setup.c **** {
 1456              		.loc 1 202 0
 1457              		.cfi_startproc
 1458              		@ args = 0, pretend = 0, frame = 8
 1459              		@ frame_needed = 0, uses_anonymous_args = 0
 1460              	.LVL198:
 1461 0000 30B5     		push	{r4, r5, lr}
 1462              	.LCFI66:
 1463              		.cfi_def_cfa_offset 12
 1464              		.cfi_offset 4, -12
 1465              		.cfi_offset 5, -8
 1466              		.cfi_offset 14, -4
 1467 0002 85B0     		sub	sp, sp, #20
 1468              	.LCFI67:
 1469              		.cfi_def_cfa_offset 32
 1470 0004 0446     		mov	r4, r0
 1471 0006 0D46     		mov	r5, r1
 203:Core/u8g2/u8g2_d_setup.c ****   uint8_t tile_buf_height;
 204:Core/u8g2/u8g2_d_setup.c ****   uint8_t *buf;
 205:Core/u8g2/u8g2_d_setup.c ****   u8g2_SetupDisplay(u8g2, u8x8_d_ssd1306_128x64_vcomh0, u8x8_cad_001, byte_cb, gpio_and_delay_cb);
 1472              		.loc 1 205 0
 1473 0008 0093     		str	r3, [sp]
 1474 000a 1346     		mov	r3, r2
 1475              	.LVL199:
 1476 000c 084A     		ldr	r2, .L91
 1477              	.LVL200:
 1478 000e 0949     		ldr	r1, .L91+4
 1479              	.LVL201:
 1480 0010 FFF7FEFF 		bl	u8x8_Setup
 1481              	.LVL202:
 206:Core/u8g2/u8g2_d_setup.c ****   buf = u8g2_m_16_8_2(&tile_buf_height);
 1482              		.loc 1 206 0
 1483 0014 0DF10F00 		add	r0, sp, #15
 1484 0018 FFF7FEFF 		bl	u8g2_m_16_8_2
 1485              	.LVL203:
 207:Core/u8g2/u8g2_d_setup.c ****   u8g2_SetupBuffer(u8g2, buf, tile_buf_height, u8g2_ll_hvline_vertical_top_lsb, rotation);
 1486              		.loc 1 207 0
 1487 001c 9DF80F20 		ldrb	r2, [sp, #15]	@ zero_extendqisi2
 1488 0020 0095     		str	r5, [sp]
 1489 0022 054B     		ldr	r3, .L91+8
 1490 0024 0146     		mov	r1, r0
 1491 0026 2046     		mov	r0, r4
ARM GAS  C:\Users\ASUS\AppData\Local\Temp\ccLOtXM9.s 			page 30


 1492              	.LVL204:
 1493 0028 FFF7FEFF 		bl	u8g2_SetupBuffer
 1494              	.LVL205:
 208:Core/u8g2/u8g2_d_setup.c **** }
 1495              		.loc 1 208 0
 1496 002c 05B0     		add	sp, sp, #20
 1497              	.LCFI68:
 1498              		.cfi_def_cfa_offset 12
 1499              		@ sp needed
 1500 002e 30BD     		pop	{r4, r5, pc}
 1501              	.LVL206:
 1502              	.L92:
 1503              		.align	2
 1504              	.L91:
 1505 0030 00000000 		.word	u8x8_cad_001
 1506 0034 00000000 		.word	u8x8_d_ssd1306_128x64_vcomh0
 1507 0038 00000000 		.word	u8g2_ll_hvline_vertical_top_lsb
 1508              		.cfi_endproc
 1509              	.LFE22:
 1511              		.section	.text.u8g2_Setup_ssd1306_128x64_alt0_2,"ax",%progbits
 1512              		.align	1
 1513              		.global	u8g2_Setup_ssd1306_128x64_alt0_2
 1514              		.syntax unified
 1515              		.thumb
 1516              		.thumb_func
 1517              		.fpu softvfp
 1519              	u8g2_Setup_ssd1306_128x64_alt0_2:
 1520              	.LFB23:
 209:Core/u8g2/u8g2_d_setup.c **** void u8g2_Setup_ssd1306_128x64_alt0_2(u8g2_t *u8g2, const u8g2_cb_t *rotation, u8x8_msg_cb byte_cb,
 210:Core/u8g2/u8g2_d_setup.c **** {
 1521              		.loc 1 210 0
 1522              		.cfi_startproc
 1523              		@ args = 0, pretend = 0, frame = 8
 1524              		@ frame_needed = 0, uses_anonymous_args = 0
 1525              	.LVL207:
 1526 0000 30B5     		push	{r4, r5, lr}
 1527              	.LCFI69:
 1528              		.cfi_def_cfa_offset 12
 1529              		.cfi_offset 4, -12
 1530              		.cfi_offset 5, -8
 1531              		.cfi_offset 14, -4
 1532 0002 85B0     		sub	sp, sp, #20
 1533              	.LCFI70:
 1534              		.cfi_def_cfa_offset 32
 1535 0004 0446     		mov	r4, r0
 1536 0006 0D46     		mov	r5, r1
 211:Core/u8g2/u8g2_d_setup.c ****   uint8_t tile_buf_height;
 212:Core/u8g2/u8g2_d_setup.c ****   uint8_t *buf;
 213:Core/u8g2/u8g2_d_setup.c ****   u8g2_SetupDisplay(u8g2, u8x8_d_ssd1306_128x64_alt0, u8x8_cad_001, byte_cb, gpio_and_delay_cb);
 1537              		.loc 1 213 0
 1538 0008 0093     		str	r3, [sp]
 1539 000a 1346     		mov	r3, r2
 1540              	.LVL208:
 1541 000c 084A     		ldr	r2, .L95
 1542              	.LVL209:
 1543 000e 0949     		ldr	r1, .L95+4
 1544              	.LVL210:
ARM GAS  C:\Users\ASUS\AppData\Local\Temp\ccLOtXM9.s 			page 31


 1545 0010 FFF7FEFF 		bl	u8x8_Setup
 1546              	.LVL211:
 214:Core/u8g2/u8g2_d_setup.c ****   buf = u8g2_m_16_8_2(&tile_buf_height);
 1547              		.loc 1 214 0
 1548 0014 0DF10F00 		add	r0, sp, #15
 1549 0018 FFF7FEFF 		bl	u8g2_m_16_8_2
 1550              	.LVL212:
 215:Core/u8g2/u8g2_d_setup.c ****   u8g2_SetupBuffer(u8g2, buf, tile_buf_height, u8g2_ll_hvline_vertical_top_lsb, rotation);
 1551              		.loc 1 215 0
 1552 001c 9DF80F20 		ldrb	r2, [sp, #15]	@ zero_extendqisi2
 1553 0020 0095     		str	r5, [sp]
 1554 0022 054B     		ldr	r3, .L95+8
 1555 0024 0146     		mov	r1, r0
 1556 0026 2046     		mov	r0, r4
 1557              	.LVL213:
 1558 0028 FFF7FEFF 		bl	u8g2_SetupBuffer
 1559              	.LVL214:
 216:Core/u8g2/u8g2_d_setup.c **** }
 1560              		.loc 1 216 0
 1561 002c 05B0     		add	sp, sp, #20
 1562              	.LCFI71:
 1563              		.cfi_def_cfa_offset 12
 1564              		@ sp needed
 1565 002e 30BD     		pop	{r4, r5, pc}
 1566              	.LVL215:
 1567              	.L96:
 1568              		.align	2
 1569              	.L95:
 1570 0030 00000000 		.word	u8x8_cad_001
 1571 0034 00000000 		.word	u8x8_d_ssd1306_128x64_alt0
 1572 0038 00000000 		.word	u8g2_ll_hvline_vertical_top_lsb
 1573              		.cfi_endproc
 1574              	.LFE23:
 1576              		.section	.text.u8g2_Setup_ssd1306_128x64_noname_f,"ax",%progbits
 1577              		.align	1
 1578              		.global	u8g2_Setup_ssd1306_128x64_noname_f
 1579              		.syntax unified
 1580              		.thumb
 1581              		.thumb_func
 1582              		.fpu softvfp
 1584              	u8g2_Setup_ssd1306_128x64_noname_f:
 1585              	.LFB24:
 217:Core/u8g2/u8g2_d_setup.c **** /* ssd1306 f */
 218:Core/u8g2/u8g2_d_setup.c **** void u8g2_Setup_ssd1306_128x64_noname_f(u8g2_t *u8g2, const u8g2_cb_t *rotation, u8x8_msg_cb byte_c
 219:Core/u8g2/u8g2_d_setup.c **** {
 1586              		.loc 1 219 0
 1587              		.cfi_startproc
 1588              		@ args = 0, pretend = 0, frame = 8
 1589              		@ frame_needed = 0, uses_anonymous_args = 0
 1590              	.LVL216:
 1591 0000 30B5     		push	{r4, r5, lr}
 1592              	.LCFI72:
 1593              		.cfi_def_cfa_offset 12
 1594              		.cfi_offset 4, -12
 1595              		.cfi_offset 5, -8
 1596              		.cfi_offset 14, -4
 1597 0002 85B0     		sub	sp, sp, #20
ARM GAS  C:\Users\ASUS\AppData\Local\Temp\ccLOtXM9.s 			page 32


 1598              	.LCFI73:
 1599              		.cfi_def_cfa_offset 32
 1600 0004 0446     		mov	r4, r0
 1601 0006 0D46     		mov	r5, r1
 220:Core/u8g2/u8g2_d_setup.c ****   uint8_t tile_buf_height;
 221:Core/u8g2/u8g2_d_setup.c ****   uint8_t *buf;
 222:Core/u8g2/u8g2_d_setup.c ****   u8g2_SetupDisplay(u8g2, u8x8_d_ssd1306_128x64_noname, u8x8_cad_001, byte_cb, gpio_and_delay_cb);
 1602              		.loc 1 222 0
 1603 0008 0093     		str	r3, [sp]
 1604 000a 1346     		mov	r3, r2
 1605              	.LVL217:
 1606 000c 084A     		ldr	r2, .L99
 1607              	.LVL218:
 1608 000e 0949     		ldr	r1, .L99+4
 1609              	.LVL219:
 1610 0010 FFF7FEFF 		bl	u8x8_Setup
 1611              	.LVL220:
 223:Core/u8g2/u8g2_d_setup.c ****   buf = u8g2_m_16_8_f(&tile_buf_height);
 1612              		.loc 1 223 0
 1613 0014 0DF10F00 		add	r0, sp, #15
 1614 0018 FFF7FEFF 		bl	u8g2_m_16_8_f
 1615              	.LVL221:
 224:Core/u8g2/u8g2_d_setup.c ****   u8g2_SetupBuffer(u8g2, buf, tile_buf_height, u8g2_ll_hvline_vertical_top_lsb, rotation);
 1616              		.loc 1 224 0
 1617 001c 9DF80F20 		ldrb	r2, [sp, #15]	@ zero_extendqisi2
 1618 0020 0095     		str	r5, [sp]
 1619 0022 054B     		ldr	r3, .L99+8
 1620 0024 0146     		mov	r1, r0
 1621 0026 2046     		mov	r0, r4
 1622              	.LVL222:
 1623 0028 FFF7FEFF 		bl	u8g2_SetupBuffer
 1624              	.LVL223:
 225:Core/u8g2/u8g2_d_setup.c **** }
 1625              		.loc 1 225 0
 1626 002c 05B0     		add	sp, sp, #20
 1627              	.LCFI74:
 1628              		.cfi_def_cfa_offset 12
 1629              		@ sp needed
 1630 002e 30BD     		pop	{r4, r5, pc}
 1631              	.LVL224:
 1632              	.L100:
 1633              		.align	2
 1634              	.L99:
 1635 0030 00000000 		.word	u8x8_cad_001
 1636 0034 00000000 		.word	u8x8_d_ssd1306_128x64_noname
 1637 0038 00000000 		.word	u8g2_ll_hvline_vertical_top_lsb
 1638              		.cfi_endproc
 1639              	.LFE24:
 1641              		.section	.text.u8g2_Setup_ssd1306_128x64_vcomh0_f,"ax",%progbits
 1642              		.align	1
 1643              		.global	u8g2_Setup_ssd1306_128x64_vcomh0_f
 1644              		.syntax unified
 1645              		.thumb
 1646              		.thumb_func
 1647              		.fpu softvfp
 1649              	u8g2_Setup_ssd1306_128x64_vcomh0_f:
 1650              	.LFB25:
ARM GAS  C:\Users\ASUS\AppData\Local\Temp\ccLOtXM9.s 			page 33


 226:Core/u8g2/u8g2_d_setup.c **** void u8g2_Setup_ssd1306_128x64_vcomh0_f(u8g2_t *u8g2, const u8g2_cb_t *rotation, u8x8_msg_cb byte_c
 227:Core/u8g2/u8g2_d_setup.c **** {
 1651              		.loc 1 227 0
 1652              		.cfi_startproc
 1653              		@ args = 0, pretend = 0, frame = 8
 1654              		@ frame_needed = 0, uses_anonymous_args = 0
 1655              	.LVL225:
 1656 0000 30B5     		push	{r4, r5, lr}
 1657              	.LCFI75:
 1658              		.cfi_def_cfa_offset 12
 1659              		.cfi_offset 4, -12
 1660              		.cfi_offset 5, -8
 1661              		.cfi_offset 14, -4
 1662 0002 85B0     		sub	sp, sp, #20
 1663              	.LCFI76:
 1664              		.cfi_def_cfa_offset 32
 1665 0004 0446     		mov	r4, r0
 1666 0006 0D46     		mov	r5, r1
 228:Core/u8g2/u8g2_d_setup.c ****   uint8_t tile_buf_height;
 229:Core/u8g2/u8g2_d_setup.c ****   uint8_t *buf;
 230:Core/u8g2/u8g2_d_setup.c ****   u8g2_SetupDisplay(u8g2, u8x8_d_ssd1306_128x64_vcomh0, u8x8_cad_001, byte_cb, gpio_and_delay_cb);
 1667              		.loc 1 230 0
 1668 0008 0093     		str	r3, [sp]
 1669 000a 1346     		mov	r3, r2
 1670              	.LVL226:
 1671 000c 084A     		ldr	r2, .L103
 1672              	.LVL227:
 1673 000e 0949     		ldr	r1, .L103+4
 1674              	.LVL228:
 1675 0010 FFF7FEFF 		bl	u8x8_Setup
 1676              	.LVL229:
 231:Core/u8g2/u8g2_d_setup.c ****   buf = u8g2_m_16_8_f(&tile_buf_height);
 1677              		.loc 1 231 0
 1678 0014 0DF10F00 		add	r0, sp, #15
 1679 0018 FFF7FEFF 		bl	u8g2_m_16_8_f
 1680              	.LVL230:
 232:Core/u8g2/u8g2_d_setup.c ****   u8g2_SetupBuffer(u8g2, buf, tile_buf_height, u8g2_ll_hvline_vertical_top_lsb, rotation);
 1681              		.loc 1 232 0
 1682 001c 9DF80F20 		ldrb	r2, [sp, #15]	@ zero_extendqisi2
 1683 0020 0095     		str	r5, [sp]
 1684 0022 054B     		ldr	r3, .L103+8
 1685 0024 0146     		mov	r1, r0
 1686 0026 2046     		mov	r0, r4
 1687              	.LVL231:
 1688 0028 FFF7FEFF 		bl	u8g2_SetupBuffer
 1689              	.LVL232:
 233:Core/u8g2/u8g2_d_setup.c **** }
 1690              		.loc 1 233 0
 1691 002c 05B0     		add	sp, sp, #20
 1692              	.LCFI77:
 1693              		.cfi_def_cfa_offset 12
 1694              		@ sp needed
 1695 002e 30BD     		pop	{r4, r5, pc}
 1696              	.LVL233:
 1697              	.L104:
 1698              		.align	2
 1699              	.L103:
ARM GAS  C:\Users\ASUS\AppData\Local\Temp\ccLOtXM9.s 			page 34


 1700 0030 00000000 		.word	u8x8_cad_001
 1701 0034 00000000 		.word	u8x8_d_ssd1306_128x64_vcomh0
 1702 0038 00000000 		.word	u8g2_ll_hvline_vertical_top_lsb
 1703              		.cfi_endproc
 1704              	.LFE25:
 1706              		.section	.text.u8g2_Setup_ssd1306_128x64_alt0_f,"ax",%progbits
 1707              		.align	1
 1708              		.global	u8g2_Setup_ssd1306_128x64_alt0_f
 1709              		.syntax unified
 1710              		.thumb
 1711              		.thumb_func
 1712              		.fpu softvfp
 1714              	u8g2_Setup_ssd1306_128x64_alt0_f:
 1715              	.LFB26:
 234:Core/u8g2/u8g2_d_setup.c **** void u8g2_Setup_ssd1306_128x64_alt0_f(u8g2_t *u8g2, const u8g2_cb_t *rotation, u8x8_msg_cb byte_cb,
 235:Core/u8g2/u8g2_d_setup.c **** {
 1716              		.loc 1 235 0
 1717              		.cfi_startproc
 1718              		@ args = 0, pretend = 0, frame = 8
 1719              		@ frame_needed = 0, uses_anonymous_args = 0
 1720              	.LVL234:
 1721 0000 30B5     		push	{r4, r5, lr}
 1722              	.LCFI78:
 1723              		.cfi_def_cfa_offset 12
 1724              		.cfi_offset 4, -12
 1725              		.cfi_offset 5, -8
 1726              		.cfi_offset 14, -4
 1727 0002 85B0     		sub	sp, sp, #20
 1728              	.LCFI79:
 1729              		.cfi_def_cfa_offset 32
 1730 0004 0446     		mov	r4, r0
 1731 0006 0D46     		mov	r5, r1
 236:Core/u8g2/u8g2_d_setup.c ****   uint8_t tile_buf_height;
 237:Core/u8g2/u8g2_d_setup.c ****   uint8_t *buf;
 238:Core/u8g2/u8g2_d_setup.c ****   u8g2_SetupDisplay(u8g2, u8x8_d_ssd1306_128x64_alt0, u8x8_cad_001, byte_cb, gpio_and_delay_cb);
 1732              		.loc 1 238 0
 1733 0008 0093     		str	r3, [sp]
 1734 000a 1346     		mov	r3, r2
 1735              	.LVL235:
 1736 000c 084A     		ldr	r2, .L107
 1737              	.LVL236:
 1738 000e 0949     		ldr	r1, .L107+4
 1739              	.LVL237:
 1740 0010 FFF7FEFF 		bl	u8x8_Setup
 1741              	.LVL238:
 239:Core/u8g2/u8g2_d_setup.c ****   buf = u8g2_m_16_8_f(&tile_buf_height);
 1742              		.loc 1 239 0
 1743 0014 0DF10F00 		add	r0, sp, #15
 1744 0018 FFF7FEFF 		bl	u8g2_m_16_8_f
 1745              	.LVL239:
 240:Core/u8g2/u8g2_d_setup.c ****   u8g2_SetupBuffer(u8g2, buf, tile_buf_height, u8g2_ll_hvline_vertical_top_lsb, rotation);
 1746              		.loc 1 240 0
 1747 001c 9DF80F20 		ldrb	r2, [sp, #15]	@ zero_extendqisi2
 1748 0020 0095     		str	r5, [sp]
 1749 0022 054B     		ldr	r3, .L107+8
 1750 0024 0146     		mov	r1, r0
 1751 0026 2046     		mov	r0, r4
ARM GAS  C:\Users\ASUS\AppData\Local\Temp\ccLOtXM9.s 			page 35


 1752              	.LVL240:
 1753 0028 FFF7FEFF 		bl	u8g2_SetupBuffer
 1754              	.LVL241:
 241:Core/u8g2/u8g2_d_setup.c **** }
 1755              		.loc 1 241 0
 1756 002c 05B0     		add	sp, sp, #20
 1757              	.LCFI80:
 1758              		.cfi_def_cfa_offset 12
 1759              		@ sp needed
 1760 002e 30BD     		pop	{r4, r5, pc}
 1761              	.LVL242:
 1762              	.L108:
 1763              		.align	2
 1764              	.L107:
 1765 0030 00000000 		.word	u8x8_cad_001
 1766 0034 00000000 		.word	u8x8_d_ssd1306_128x64_alt0
 1767 0038 00000000 		.word	u8g2_ll_hvline_vertical_top_lsb
 1768              		.cfi_endproc
 1769              	.LFE26:
 1771              		.section	.text.u8g2_Setup_ssd1306_i2c_128x64_noname_1,"ax",%progbits
 1772              		.align	1
 1773              		.global	u8g2_Setup_ssd1306_i2c_128x64_noname_1
 1774              		.syntax unified
 1775              		.thumb
 1776              		.thumb_func
 1777              		.fpu softvfp
 1779              	u8g2_Setup_ssd1306_i2c_128x64_noname_1:
 1780              	.LFB27:
 242:Core/u8g2/u8g2_d_setup.c **** /* ssd1306 */
 243:Core/u8g2/u8g2_d_setup.c **** /* ssd1306 1 */
 244:Core/u8g2/u8g2_d_setup.c **** void u8g2_Setup_ssd1306_i2c_128x64_noname_1(u8g2_t *u8g2, const u8g2_cb_t *rotation, u8x8_msg_cb by
 245:Core/u8g2/u8g2_d_setup.c **** {
 1781              		.loc 1 245 0
 1782              		.cfi_startproc
 1783              		@ args = 0, pretend = 0, frame = 8
 1784              		@ frame_needed = 0, uses_anonymous_args = 0
 1785              	.LVL243:
 1786 0000 30B5     		push	{r4, r5, lr}
 1787              	.LCFI81:
 1788              		.cfi_def_cfa_offset 12
 1789              		.cfi_offset 4, -12
 1790              		.cfi_offset 5, -8
 1791              		.cfi_offset 14, -4
 1792 0002 85B0     		sub	sp, sp, #20
 1793              	.LCFI82:
 1794              		.cfi_def_cfa_offset 32
 1795 0004 0446     		mov	r4, r0
 1796 0006 0D46     		mov	r5, r1
 246:Core/u8g2/u8g2_d_setup.c ****   uint8_t tile_buf_height;
 247:Core/u8g2/u8g2_d_setup.c ****   uint8_t *buf;
 248:Core/u8g2/u8g2_d_setup.c ****   u8g2_SetupDisplay(u8g2, u8x8_d_ssd1306_128x64_noname, u8x8_cad_ssd13xx_i2c, byte_cb, gpio_and_del
 1797              		.loc 1 248 0
 1798 0008 0093     		str	r3, [sp]
 1799 000a 1346     		mov	r3, r2
 1800              	.LVL244:
 1801 000c 084A     		ldr	r2, .L111
 1802              	.LVL245:
ARM GAS  C:\Users\ASUS\AppData\Local\Temp\ccLOtXM9.s 			page 36


 1803 000e 0949     		ldr	r1, .L111+4
 1804              	.LVL246:
 1805 0010 FFF7FEFF 		bl	u8x8_Setup
 1806              	.LVL247:
 249:Core/u8g2/u8g2_d_setup.c ****   buf = u8g2_m_16_8_1(&tile_buf_height);
 1807              		.loc 1 249 0
 1808 0014 0DF10F00 		add	r0, sp, #15
 1809 0018 FFF7FEFF 		bl	u8g2_m_16_8_1
 1810              	.LVL248:
 250:Core/u8g2/u8g2_d_setup.c ****   u8g2_SetupBuffer(u8g2, buf, tile_buf_height, u8g2_ll_hvline_vertical_top_lsb, rotation);
 1811              		.loc 1 250 0
 1812 001c 9DF80F20 		ldrb	r2, [sp, #15]	@ zero_extendqisi2
 1813 0020 0095     		str	r5, [sp]
 1814 0022 054B     		ldr	r3, .L111+8
 1815 0024 0146     		mov	r1, r0
 1816 0026 2046     		mov	r0, r4
 1817              	.LVL249:
 1818 0028 FFF7FEFF 		bl	u8g2_SetupBuffer
 1819              	.LVL250:
 251:Core/u8g2/u8g2_d_setup.c **** }
 1820              		.loc 1 251 0
 1821 002c 05B0     		add	sp, sp, #20
 1822              	.LCFI83:
 1823              		.cfi_def_cfa_offset 12
 1824              		@ sp needed
 1825 002e 30BD     		pop	{r4, r5, pc}
 1826              	.LVL251:
 1827              	.L112:
 1828              		.align	2
 1829              	.L111:
 1830 0030 00000000 		.word	u8x8_cad_ssd13xx_i2c
 1831 0034 00000000 		.word	u8x8_d_ssd1306_128x64_noname
 1832 0038 00000000 		.word	u8g2_ll_hvline_vertical_top_lsb
 1833              		.cfi_endproc
 1834              	.LFE27:
 1836              		.section	.text.u8g2_Setup_ssd1306_i2c_128x64_vcomh0_1,"ax",%progbits
 1837              		.align	1
 1838              		.global	u8g2_Setup_ssd1306_i2c_128x64_vcomh0_1
 1839              		.syntax unified
 1840              		.thumb
 1841              		.thumb_func
 1842              		.fpu softvfp
 1844              	u8g2_Setup_ssd1306_i2c_128x64_vcomh0_1:
 1845              	.LFB28:
 252:Core/u8g2/u8g2_d_setup.c **** void u8g2_Setup_ssd1306_i2c_128x64_vcomh0_1(u8g2_t *u8g2, const u8g2_cb_t *rotation, u8x8_msg_cb by
 253:Core/u8g2/u8g2_d_setup.c **** {
 1846              		.loc 1 253 0
 1847              		.cfi_startproc
 1848              		@ args = 0, pretend = 0, frame = 8
 1849              		@ frame_needed = 0, uses_anonymous_args = 0
 1850              	.LVL252:
 1851 0000 30B5     		push	{r4, r5, lr}
 1852              	.LCFI84:
 1853              		.cfi_def_cfa_offset 12
 1854              		.cfi_offset 4, -12
 1855              		.cfi_offset 5, -8
 1856              		.cfi_offset 14, -4
ARM GAS  C:\Users\ASUS\AppData\Local\Temp\ccLOtXM9.s 			page 37


 1857 0002 85B0     		sub	sp, sp, #20
 1858              	.LCFI85:
 1859              		.cfi_def_cfa_offset 32
 1860 0004 0446     		mov	r4, r0
 1861 0006 0D46     		mov	r5, r1
 254:Core/u8g2/u8g2_d_setup.c ****   uint8_t tile_buf_height;
 255:Core/u8g2/u8g2_d_setup.c ****   uint8_t *buf;
 256:Core/u8g2/u8g2_d_setup.c ****   u8g2_SetupDisplay(u8g2, u8x8_d_ssd1306_128x64_vcomh0, u8x8_cad_ssd13xx_i2c, byte_cb, gpio_and_del
 1862              		.loc 1 256 0
 1863 0008 0093     		str	r3, [sp]
 1864 000a 1346     		mov	r3, r2
 1865              	.LVL253:
 1866 000c 084A     		ldr	r2, .L115
 1867              	.LVL254:
 1868 000e 0949     		ldr	r1, .L115+4
 1869              	.LVL255:
 1870 0010 FFF7FEFF 		bl	u8x8_Setup
 1871              	.LVL256:
 257:Core/u8g2/u8g2_d_setup.c ****   buf = u8g2_m_16_8_1(&tile_buf_height);
 1872              		.loc 1 257 0
 1873 0014 0DF10F00 		add	r0, sp, #15
 1874 0018 FFF7FEFF 		bl	u8g2_m_16_8_1
 1875              	.LVL257:
 258:Core/u8g2/u8g2_d_setup.c ****   u8g2_SetupBuffer(u8g2, buf, tile_buf_height, u8g2_ll_hvline_vertical_top_lsb, rotation);
 1876              		.loc 1 258 0
 1877 001c 9DF80F20 		ldrb	r2, [sp, #15]	@ zero_extendqisi2
 1878 0020 0095     		str	r5, [sp]
 1879 0022 054B     		ldr	r3, .L115+8
 1880 0024 0146     		mov	r1, r0
 1881 0026 2046     		mov	r0, r4
 1882              	.LVL258:
 1883 0028 FFF7FEFF 		bl	u8g2_SetupBuffer
 1884              	.LVL259:
 259:Core/u8g2/u8g2_d_setup.c **** }
 1885              		.loc 1 259 0
 1886 002c 05B0     		add	sp, sp, #20
 1887              	.LCFI86:
 1888              		.cfi_def_cfa_offset 12
 1889              		@ sp needed
 1890 002e 30BD     		pop	{r4, r5, pc}
 1891              	.LVL260:
 1892              	.L116:
 1893              		.align	2
 1894              	.L115:
 1895 0030 00000000 		.word	u8x8_cad_ssd13xx_i2c
 1896 0034 00000000 		.word	u8x8_d_ssd1306_128x64_vcomh0
 1897 0038 00000000 		.word	u8g2_ll_hvline_vertical_top_lsb
 1898              		.cfi_endproc
 1899              	.LFE28:
 1901              		.section	.text.u8g2_Setup_ssd1306_i2c_128x64_alt0_1,"ax",%progbits
 1902              		.align	1
 1903              		.global	u8g2_Setup_ssd1306_i2c_128x64_alt0_1
 1904              		.syntax unified
 1905              		.thumb
 1906              		.thumb_func
 1907              		.fpu softvfp
 1909              	u8g2_Setup_ssd1306_i2c_128x64_alt0_1:
ARM GAS  C:\Users\ASUS\AppData\Local\Temp\ccLOtXM9.s 			page 38


 1910              	.LFB29:
 260:Core/u8g2/u8g2_d_setup.c **** void u8g2_Setup_ssd1306_i2c_128x64_alt0_1(u8g2_t *u8g2, const u8g2_cb_t *rotation, u8x8_msg_cb byte
 261:Core/u8g2/u8g2_d_setup.c **** {
 1911              		.loc 1 261 0
 1912              		.cfi_startproc
 1913              		@ args = 0, pretend = 0, frame = 8
 1914              		@ frame_needed = 0, uses_anonymous_args = 0
 1915              	.LVL261:
 1916 0000 30B5     		push	{r4, r5, lr}
 1917              	.LCFI87:
 1918              		.cfi_def_cfa_offset 12
 1919              		.cfi_offset 4, -12
 1920              		.cfi_offset 5, -8
 1921              		.cfi_offset 14, -4
 1922 0002 85B0     		sub	sp, sp, #20
 1923              	.LCFI88:
 1924              		.cfi_def_cfa_offset 32
 1925 0004 0446     		mov	r4, r0
 1926 0006 0D46     		mov	r5, r1
 262:Core/u8g2/u8g2_d_setup.c ****   uint8_t tile_buf_height;
 263:Core/u8g2/u8g2_d_setup.c ****   uint8_t *buf;
 264:Core/u8g2/u8g2_d_setup.c ****   u8g2_SetupDisplay(u8g2, u8x8_d_ssd1306_128x64_alt0, u8x8_cad_ssd13xx_i2c, byte_cb, gpio_and_delay
 1927              		.loc 1 264 0
 1928 0008 0093     		str	r3, [sp]
 1929 000a 1346     		mov	r3, r2
 1930              	.LVL262:
 1931 000c 084A     		ldr	r2, .L119
 1932              	.LVL263:
 1933 000e 0949     		ldr	r1, .L119+4
 1934              	.LVL264:
 1935 0010 FFF7FEFF 		bl	u8x8_Setup
 1936              	.LVL265:
 265:Core/u8g2/u8g2_d_setup.c ****   buf = u8g2_m_16_8_1(&tile_buf_height);
 1937              		.loc 1 265 0
 1938 0014 0DF10F00 		add	r0, sp, #15
 1939 0018 FFF7FEFF 		bl	u8g2_m_16_8_1
 1940              	.LVL266:
 266:Core/u8g2/u8g2_d_setup.c ****   u8g2_SetupBuffer(u8g2, buf, tile_buf_height, u8g2_ll_hvline_vertical_top_lsb, rotation);
 1941              		.loc 1 266 0
 1942 001c 9DF80F20 		ldrb	r2, [sp, #15]	@ zero_extendqisi2
 1943 0020 0095     		str	r5, [sp]
 1944 0022 054B     		ldr	r3, .L119+8
 1945 0024 0146     		mov	r1, r0
 1946 0026 2046     		mov	r0, r4
 1947              	.LVL267:
 1948 0028 FFF7FEFF 		bl	u8g2_SetupBuffer
 1949              	.LVL268:
 267:Core/u8g2/u8g2_d_setup.c **** }
 1950              		.loc 1 267 0
 1951 002c 05B0     		add	sp, sp, #20
 1952              	.LCFI89:
 1953              		.cfi_def_cfa_offset 12
 1954              		@ sp needed
 1955 002e 30BD     		pop	{r4, r5, pc}
 1956              	.LVL269:
 1957              	.L120:
 1958              		.align	2
ARM GAS  C:\Users\ASUS\AppData\Local\Temp\ccLOtXM9.s 			page 39


 1959              	.L119:
 1960 0030 00000000 		.word	u8x8_cad_ssd13xx_i2c
 1961 0034 00000000 		.word	u8x8_d_ssd1306_128x64_alt0
 1962 0038 00000000 		.word	u8g2_ll_hvline_vertical_top_lsb
 1963              		.cfi_endproc
 1964              	.LFE29:
 1966              		.section	.text.u8g2_Setup_ssd1306_i2c_128x64_noname_2,"ax",%progbits
 1967              		.align	1
 1968              		.global	u8g2_Setup_ssd1306_i2c_128x64_noname_2
 1969              		.syntax unified
 1970              		.thumb
 1971              		.thumb_func
 1972              		.fpu softvfp
 1974              	u8g2_Setup_ssd1306_i2c_128x64_noname_2:
 1975              	.LFB30:
 268:Core/u8g2/u8g2_d_setup.c **** /* ssd1306 2 */
 269:Core/u8g2/u8g2_d_setup.c **** void u8g2_Setup_ssd1306_i2c_128x64_noname_2(u8g2_t *u8g2, const u8g2_cb_t *rotation, u8x8_msg_cb by
 270:Core/u8g2/u8g2_d_setup.c **** {
 1976              		.loc 1 270 0
 1977              		.cfi_startproc
 1978              		@ args = 0, pretend = 0, frame = 8
 1979              		@ frame_needed = 0, uses_anonymous_args = 0
 1980              	.LVL270:
 1981 0000 30B5     		push	{r4, r5, lr}
 1982              	.LCFI90:
 1983              		.cfi_def_cfa_offset 12
 1984              		.cfi_offset 4, -12
 1985              		.cfi_offset 5, -8
 1986              		.cfi_offset 14, -4
 1987 0002 85B0     		sub	sp, sp, #20
 1988              	.LCFI91:
 1989              		.cfi_def_cfa_offset 32
 1990 0004 0446     		mov	r4, r0
 1991 0006 0D46     		mov	r5, r1
 271:Core/u8g2/u8g2_d_setup.c ****   uint8_t tile_buf_height;
 272:Core/u8g2/u8g2_d_setup.c ****   uint8_t *buf;
 273:Core/u8g2/u8g2_d_setup.c ****   u8g2_SetupDisplay(u8g2, u8x8_d_ssd1306_128x64_noname, u8x8_cad_ssd13xx_i2c, byte_cb, gpio_and_del
 1992              		.loc 1 273 0
 1993 0008 0093     		str	r3, [sp]
 1994 000a 1346     		mov	r3, r2
 1995              	.LVL271:
 1996 000c 084A     		ldr	r2, .L123
 1997              	.LVL272:
 1998 000e 0949     		ldr	r1, .L123+4
 1999              	.LVL273:
 2000 0010 FFF7FEFF 		bl	u8x8_Setup
 2001              	.LVL274:
 274:Core/u8g2/u8g2_d_setup.c ****   buf = u8g2_m_16_8_2(&tile_buf_height);
 2002              		.loc 1 274 0
 2003 0014 0DF10F00 		add	r0, sp, #15
 2004 0018 FFF7FEFF 		bl	u8g2_m_16_8_2
 2005              	.LVL275:
 275:Core/u8g2/u8g2_d_setup.c ****   u8g2_SetupBuffer(u8g2, buf, tile_buf_height, u8g2_ll_hvline_vertical_top_lsb, rotation);
 2006              		.loc 1 275 0
 2007 001c 9DF80F20 		ldrb	r2, [sp, #15]	@ zero_extendqisi2
 2008 0020 0095     		str	r5, [sp]
 2009 0022 054B     		ldr	r3, .L123+8
ARM GAS  C:\Users\ASUS\AppData\Local\Temp\ccLOtXM9.s 			page 40


 2010 0024 0146     		mov	r1, r0
 2011 0026 2046     		mov	r0, r4
 2012              	.LVL276:
 2013 0028 FFF7FEFF 		bl	u8g2_SetupBuffer
 2014              	.LVL277:
 276:Core/u8g2/u8g2_d_setup.c **** }
 2015              		.loc 1 276 0
 2016 002c 05B0     		add	sp, sp, #20
 2017              	.LCFI92:
 2018              		.cfi_def_cfa_offset 12
 2019              		@ sp needed
 2020 002e 30BD     		pop	{r4, r5, pc}
 2021              	.LVL278:
 2022              	.L124:
 2023              		.align	2
 2024              	.L123:
 2025 0030 00000000 		.word	u8x8_cad_ssd13xx_i2c
 2026 0034 00000000 		.word	u8x8_d_ssd1306_128x64_noname
 2027 0038 00000000 		.word	u8g2_ll_hvline_vertical_top_lsb
 2028              		.cfi_endproc
 2029              	.LFE30:
 2031              		.section	.text.u8g2_Setup_ssd1306_i2c_128x64_vcomh0_2,"ax",%progbits
 2032              		.align	1
 2033              		.global	u8g2_Setup_ssd1306_i2c_128x64_vcomh0_2
 2034              		.syntax unified
 2035              		.thumb
 2036              		.thumb_func
 2037              		.fpu softvfp
 2039              	u8g2_Setup_ssd1306_i2c_128x64_vcomh0_2:
 2040              	.LFB31:
 277:Core/u8g2/u8g2_d_setup.c **** void u8g2_Setup_ssd1306_i2c_128x64_vcomh0_2(u8g2_t *u8g2, const u8g2_cb_t *rotation, u8x8_msg_cb by
 278:Core/u8g2/u8g2_d_setup.c **** {
 2041              		.loc 1 278 0
 2042              		.cfi_startproc
 2043              		@ args = 0, pretend = 0, frame = 8
 2044              		@ frame_needed = 0, uses_anonymous_args = 0
 2045              	.LVL279:
 2046 0000 30B5     		push	{r4, r5, lr}
 2047              	.LCFI93:
 2048              		.cfi_def_cfa_offset 12
 2049              		.cfi_offset 4, -12
 2050              		.cfi_offset 5, -8
 2051              		.cfi_offset 14, -4
 2052 0002 85B0     		sub	sp, sp, #20
 2053              	.LCFI94:
 2054              		.cfi_def_cfa_offset 32
 2055 0004 0446     		mov	r4, r0
 2056 0006 0D46     		mov	r5, r1
 279:Core/u8g2/u8g2_d_setup.c ****   uint8_t tile_buf_height;
 280:Core/u8g2/u8g2_d_setup.c ****   uint8_t *buf;
 281:Core/u8g2/u8g2_d_setup.c ****   u8g2_SetupDisplay(u8g2, u8x8_d_ssd1306_128x64_vcomh0, u8x8_cad_ssd13xx_i2c, byte_cb, gpio_and_del
 2057              		.loc 1 281 0
 2058 0008 0093     		str	r3, [sp]
 2059 000a 1346     		mov	r3, r2
 2060              	.LVL280:
 2061 000c 084A     		ldr	r2, .L127
 2062              	.LVL281:
ARM GAS  C:\Users\ASUS\AppData\Local\Temp\ccLOtXM9.s 			page 41


 2063 000e 0949     		ldr	r1, .L127+4
 2064              	.LVL282:
 2065 0010 FFF7FEFF 		bl	u8x8_Setup
 2066              	.LVL283:
 282:Core/u8g2/u8g2_d_setup.c ****   buf = u8g2_m_16_8_2(&tile_buf_height);
 2067              		.loc 1 282 0
 2068 0014 0DF10F00 		add	r0, sp, #15
 2069 0018 FFF7FEFF 		bl	u8g2_m_16_8_2
 2070              	.LVL284:
 283:Core/u8g2/u8g2_d_setup.c ****   u8g2_SetupBuffer(u8g2, buf, tile_buf_height, u8g2_ll_hvline_vertical_top_lsb, rotation);
 2071              		.loc 1 283 0
 2072 001c 9DF80F20 		ldrb	r2, [sp, #15]	@ zero_extendqisi2
 2073 0020 0095     		str	r5, [sp]
 2074 0022 054B     		ldr	r3, .L127+8
 2075 0024 0146     		mov	r1, r0
 2076 0026 2046     		mov	r0, r4
 2077              	.LVL285:
 2078 0028 FFF7FEFF 		bl	u8g2_SetupBuffer
 2079              	.LVL286:
 284:Core/u8g2/u8g2_d_setup.c **** }
 2080              		.loc 1 284 0
 2081 002c 05B0     		add	sp, sp, #20
 2082              	.LCFI95:
 2083              		.cfi_def_cfa_offset 12
 2084              		@ sp needed
 2085 002e 30BD     		pop	{r4, r5, pc}
 2086              	.LVL287:
 2087              	.L128:
 2088              		.align	2
 2089              	.L127:
 2090 0030 00000000 		.word	u8x8_cad_ssd13xx_i2c
 2091 0034 00000000 		.word	u8x8_d_ssd1306_128x64_vcomh0
 2092 0038 00000000 		.word	u8g2_ll_hvline_vertical_top_lsb
 2093              		.cfi_endproc
 2094              	.LFE31:
 2096              		.section	.text.u8g2_Setup_ssd1306_i2c_128x64_alt0_2,"ax",%progbits
 2097              		.align	1
 2098              		.global	u8g2_Setup_ssd1306_i2c_128x64_alt0_2
 2099              		.syntax unified
 2100              		.thumb
 2101              		.thumb_func
 2102              		.fpu softvfp
 2104              	u8g2_Setup_ssd1306_i2c_128x64_alt0_2:
 2105              	.LFB32:
 285:Core/u8g2/u8g2_d_setup.c **** void u8g2_Setup_ssd1306_i2c_128x64_alt0_2(u8g2_t *u8g2, const u8g2_cb_t *rotation, u8x8_msg_cb byte
 286:Core/u8g2/u8g2_d_setup.c **** {
 2106              		.loc 1 286 0
 2107              		.cfi_startproc
 2108              		@ args = 0, pretend = 0, frame = 8
 2109              		@ frame_needed = 0, uses_anonymous_args = 0
 2110              	.LVL288:
 2111 0000 30B5     		push	{r4, r5, lr}
 2112              	.LCFI96:
 2113              		.cfi_def_cfa_offset 12
 2114              		.cfi_offset 4, -12
 2115              		.cfi_offset 5, -8
 2116              		.cfi_offset 14, -4
ARM GAS  C:\Users\ASUS\AppData\Local\Temp\ccLOtXM9.s 			page 42


 2117 0002 85B0     		sub	sp, sp, #20
 2118              	.LCFI97:
 2119              		.cfi_def_cfa_offset 32
 2120 0004 0446     		mov	r4, r0
 2121 0006 0D46     		mov	r5, r1
 287:Core/u8g2/u8g2_d_setup.c ****   uint8_t tile_buf_height;
 288:Core/u8g2/u8g2_d_setup.c ****   uint8_t *buf;
 289:Core/u8g2/u8g2_d_setup.c ****   u8g2_SetupDisplay(u8g2, u8x8_d_ssd1306_128x64_alt0, u8x8_cad_ssd13xx_i2c, byte_cb, gpio_and_delay
 2122              		.loc 1 289 0
 2123 0008 0093     		str	r3, [sp]
 2124 000a 1346     		mov	r3, r2
 2125              	.LVL289:
 2126 000c 084A     		ldr	r2, .L131
 2127              	.LVL290:
 2128 000e 0949     		ldr	r1, .L131+4
 2129              	.LVL291:
 2130 0010 FFF7FEFF 		bl	u8x8_Setup
 2131              	.LVL292:
 290:Core/u8g2/u8g2_d_setup.c ****   buf = u8g2_m_16_8_2(&tile_buf_height);
 2132              		.loc 1 290 0
 2133 0014 0DF10F00 		add	r0, sp, #15
 2134 0018 FFF7FEFF 		bl	u8g2_m_16_8_2
 2135              	.LVL293:
 291:Core/u8g2/u8g2_d_setup.c ****   u8g2_SetupBuffer(u8g2, buf, tile_buf_height, u8g2_ll_hvline_vertical_top_lsb, rotation);
 2136              		.loc 1 291 0
 2137 001c 9DF80F20 		ldrb	r2, [sp, #15]	@ zero_extendqisi2
 2138 0020 0095     		str	r5, [sp]
 2139 0022 054B     		ldr	r3, .L131+8
 2140 0024 0146     		mov	r1, r0
 2141 0026 2046     		mov	r0, r4
 2142              	.LVL294:
 2143 0028 FFF7FEFF 		bl	u8g2_SetupBuffer
 2144              	.LVL295:
 292:Core/u8g2/u8g2_d_setup.c **** }
 2145              		.loc 1 292 0
 2146 002c 05B0     		add	sp, sp, #20
 2147              	.LCFI98:
 2148              		.cfi_def_cfa_offset 12
 2149              		@ sp needed
 2150 002e 30BD     		pop	{r4, r5, pc}
 2151              	.LVL296:
 2152              	.L132:
 2153              		.align	2
 2154              	.L131:
 2155 0030 00000000 		.word	u8x8_cad_ssd13xx_i2c
 2156 0034 00000000 		.word	u8x8_d_ssd1306_128x64_alt0
 2157 0038 00000000 		.word	u8g2_ll_hvline_vertical_top_lsb
 2158              		.cfi_endproc
 2159              	.LFE32:
 2161              		.section	.text.u8g2_Setup_ssd1306_i2c_128x64_noname_f,"ax",%progbits
 2162              		.align	1
 2163              		.global	u8g2_Setup_ssd1306_i2c_128x64_noname_f
 2164              		.syntax unified
 2165              		.thumb
 2166              		.thumb_func
 2167              		.fpu softvfp
 2169              	u8g2_Setup_ssd1306_i2c_128x64_noname_f:
ARM GAS  C:\Users\ASUS\AppData\Local\Temp\ccLOtXM9.s 			page 43


 2170              	.LFB33:
 293:Core/u8g2/u8g2_d_setup.c **** /* ssd1306 f */
 294:Core/u8g2/u8g2_d_setup.c **** void u8g2_Setup_ssd1306_i2c_128x64_noname_f(u8g2_t *u8g2, const u8g2_cb_t *rotation, u8x8_msg_cb by
 295:Core/u8g2/u8g2_d_setup.c **** {
 2171              		.loc 1 295 0
 2172              		.cfi_startproc
 2173              		@ args = 0, pretend = 0, frame = 8
 2174              		@ frame_needed = 0, uses_anonymous_args = 0
 2175              	.LVL297:
 2176 0000 30B5     		push	{r4, r5, lr}
 2177              	.LCFI99:
 2178              		.cfi_def_cfa_offset 12
 2179              		.cfi_offset 4, -12
 2180              		.cfi_offset 5, -8
 2181              		.cfi_offset 14, -4
 2182 0002 85B0     		sub	sp, sp, #20
 2183              	.LCFI100:
 2184              		.cfi_def_cfa_offset 32
 2185 0004 0446     		mov	r4, r0
 2186 0006 0D46     		mov	r5, r1
 296:Core/u8g2/u8g2_d_setup.c ****   uint8_t tile_buf_height;
 297:Core/u8g2/u8g2_d_setup.c ****   uint8_t *buf;
 298:Core/u8g2/u8g2_d_setup.c ****   u8g2_SetupDisplay(u8g2, u8x8_d_ssd1306_128x64_noname, u8x8_cad_ssd13xx_i2c, byte_cb, gpio_and_del
 2187              		.loc 1 298 0
 2188 0008 0093     		str	r3, [sp]
 2189 000a 1346     		mov	r3, r2
 2190              	.LVL298:
 2191 000c 084A     		ldr	r2, .L135
 2192              	.LVL299:
 2193 000e 0949     		ldr	r1, .L135+4
 2194              	.LVL300:
 2195 0010 FFF7FEFF 		bl	u8x8_Setup
 2196              	.LVL301:
 299:Core/u8g2/u8g2_d_setup.c ****   buf = u8g2_m_16_8_f(&tile_buf_height);
 2197              		.loc 1 299 0
 2198 0014 0DF10F00 		add	r0, sp, #15
 2199 0018 FFF7FEFF 		bl	u8g2_m_16_8_f
 2200              	.LVL302:
 300:Core/u8g2/u8g2_d_setup.c ****   u8g2_SetupBuffer(u8g2, buf, tile_buf_height, u8g2_ll_hvline_vertical_top_lsb, rotation);
 2201              		.loc 1 300 0
 2202 001c 9DF80F20 		ldrb	r2, [sp, #15]	@ zero_extendqisi2
 2203 0020 0095     		str	r5, [sp]
 2204 0022 054B     		ldr	r3, .L135+8
 2205 0024 0146     		mov	r1, r0
 2206 0026 2046     		mov	r0, r4
 2207              	.LVL303:
 2208 0028 FFF7FEFF 		bl	u8g2_SetupBuffer
 2209              	.LVL304:
 301:Core/u8g2/u8g2_d_setup.c **** }
 2210              		.loc 1 301 0
 2211 002c 05B0     		add	sp, sp, #20
 2212              	.LCFI101:
 2213              		.cfi_def_cfa_offset 12
 2214              		@ sp needed
 2215 002e 30BD     		pop	{r4, r5, pc}
 2216              	.LVL305:
 2217              	.L136:
ARM GAS  C:\Users\ASUS\AppData\Local\Temp\ccLOtXM9.s 			page 44


 2218              		.align	2
 2219              	.L135:
 2220 0030 00000000 		.word	u8x8_cad_ssd13xx_i2c
 2221 0034 00000000 		.word	u8x8_d_ssd1306_128x64_noname
 2222 0038 00000000 		.word	u8g2_ll_hvline_vertical_top_lsb
 2223              		.cfi_endproc
 2224              	.LFE33:
 2226              		.section	.text.u8g2_Setup_ssd1306_i2c_128x64_vcomh0_f,"ax",%progbits
 2227              		.align	1
 2228              		.global	u8g2_Setup_ssd1306_i2c_128x64_vcomh0_f
 2229              		.syntax unified
 2230              		.thumb
 2231              		.thumb_func
 2232              		.fpu softvfp
 2234              	u8g2_Setup_ssd1306_i2c_128x64_vcomh0_f:
 2235              	.LFB34:
 302:Core/u8g2/u8g2_d_setup.c **** void u8g2_Setup_ssd1306_i2c_128x64_vcomh0_f(u8g2_t *u8g2, const u8g2_cb_t *rotation, u8x8_msg_cb by
 303:Core/u8g2/u8g2_d_setup.c **** {
 2236              		.loc 1 303 0
 2237              		.cfi_startproc
 2238              		@ args = 0, pretend = 0, frame = 8
 2239              		@ frame_needed = 0, uses_anonymous_args = 0
 2240              	.LVL306:
 2241 0000 30B5     		push	{r4, r5, lr}
 2242              	.LCFI102:
 2243              		.cfi_def_cfa_offset 12
 2244              		.cfi_offset 4, -12
 2245              		.cfi_offset 5, -8
 2246              		.cfi_offset 14, -4
 2247 0002 85B0     		sub	sp, sp, #20
 2248              	.LCFI103:
 2249              		.cfi_def_cfa_offset 32
 2250 0004 0446     		mov	r4, r0
 2251 0006 0D46     		mov	r5, r1
 304:Core/u8g2/u8g2_d_setup.c ****   uint8_t tile_buf_height;
 305:Core/u8g2/u8g2_d_setup.c ****   uint8_t *buf;
 306:Core/u8g2/u8g2_d_setup.c ****   u8g2_SetupDisplay(u8g2, u8x8_d_ssd1306_128x64_vcomh0, u8x8_cad_ssd13xx_i2c, byte_cb, gpio_and_del
 2252              		.loc 1 306 0
 2253 0008 0093     		str	r3, [sp]
 2254 000a 1346     		mov	r3, r2
 2255              	.LVL307:
 2256 000c 084A     		ldr	r2, .L139
 2257              	.LVL308:
 2258 000e 0949     		ldr	r1, .L139+4
 2259              	.LVL309:
 2260 0010 FFF7FEFF 		bl	u8x8_Setup
 2261              	.LVL310:
 307:Core/u8g2/u8g2_d_setup.c ****   buf = u8g2_m_16_8_f(&tile_buf_height);
 2262              		.loc 1 307 0
 2263 0014 0DF10F00 		add	r0, sp, #15
 2264 0018 FFF7FEFF 		bl	u8g2_m_16_8_f
 2265              	.LVL311:
 308:Core/u8g2/u8g2_d_setup.c ****   u8g2_SetupBuffer(u8g2, buf, tile_buf_height, u8g2_ll_hvline_vertical_top_lsb, rotation);
 2266              		.loc 1 308 0
 2267 001c 9DF80F20 		ldrb	r2, [sp, #15]	@ zero_extendqisi2
 2268 0020 0095     		str	r5, [sp]
 2269 0022 054B     		ldr	r3, .L139+8
ARM GAS  C:\Users\ASUS\AppData\Local\Temp\ccLOtXM9.s 			page 45


 2270 0024 0146     		mov	r1, r0
 2271 0026 2046     		mov	r0, r4
 2272              	.LVL312:
 2273 0028 FFF7FEFF 		bl	u8g2_SetupBuffer
 2274              	.LVL313:
 309:Core/u8g2/u8g2_d_setup.c **** }
 2275              		.loc 1 309 0
 2276 002c 05B0     		add	sp, sp, #20
 2277              	.LCFI104:
 2278              		.cfi_def_cfa_offset 12
 2279              		@ sp needed
 2280 002e 30BD     		pop	{r4, r5, pc}
 2281              	.LVL314:
 2282              	.L140:
 2283              		.align	2
 2284              	.L139:
 2285 0030 00000000 		.word	u8x8_cad_ssd13xx_i2c
 2286 0034 00000000 		.word	u8x8_d_ssd1306_128x64_vcomh0
 2287 0038 00000000 		.word	u8g2_ll_hvline_vertical_top_lsb
 2288              		.cfi_endproc
 2289              	.LFE34:
 2291              		.section	.text.u8g2_Setup_ssd1306_i2c_128x64_alt0_f,"ax",%progbits
 2292              		.align	1
 2293              		.global	u8g2_Setup_ssd1306_i2c_128x64_alt0_f
 2294              		.syntax unified
 2295              		.thumb
 2296              		.thumb_func
 2297              		.fpu softvfp
 2299              	u8g2_Setup_ssd1306_i2c_128x64_alt0_f:
 2300              	.LFB35:
 310:Core/u8g2/u8g2_d_setup.c **** void u8g2_Setup_ssd1306_i2c_128x64_alt0_f(u8g2_t *u8g2, const u8g2_cb_t *rotation, u8x8_msg_cb byte
 311:Core/u8g2/u8g2_d_setup.c **** {
 2301              		.loc 1 311 0
 2302              		.cfi_startproc
 2303              		@ args = 0, pretend = 0, frame = 8
 2304              		@ frame_needed = 0, uses_anonymous_args = 0
 2305              	.LVL315:
 2306 0000 30B5     		push	{r4, r5, lr}
 2307              	.LCFI105:
 2308              		.cfi_def_cfa_offset 12
 2309              		.cfi_offset 4, -12
 2310              		.cfi_offset 5, -8
 2311              		.cfi_offset 14, -4
 2312 0002 85B0     		sub	sp, sp, #20
 2313              	.LCFI106:
 2314              		.cfi_def_cfa_offset 32
 2315 0004 0446     		mov	r4, r0
 2316 0006 0D46     		mov	r5, r1
 312:Core/u8g2/u8g2_d_setup.c ****   uint8_t tile_buf_height;
 313:Core/u8g2/u8g2_d_setup.c ****   uint8_t *buf;
 314:Core/u8g2/u8g2_d_setup.c ****   u8g2_SetupDisplay(u8g2, u8x8_d_ssd1306_128x64_alt0, u8x8_cad_ssd13xx_i2c, byte_cb, gpio_and_delay
 2317              		.loc 1 314 0
 2318 0008 0093     		str	r3, [sp]
 2319 000a 1346     		mov	r3, r2
 2320              	.LVL316:
 2321 000c 084A     		ldr	r2, .L143
 2322              	.LVL317:
ARM GAS  C:\Users\ASUS\AppData\Local\Temp\ccLOtXM9.s 			page 46


 2323 000e 0949     		ldr	r1, .L143+4
 2324              	.LVL318:
 2325 0010 FFF7FEFF 		bl	u8x8_Setup
 2326              	.LVL319:
 315:Core/u8g2/u8g2_d_setup.c ****   buf = u8g2_m_16_8_f(&tile_buf_height);
 2327              		.loc 1 315 0
 2328 0014 0DF10F00 		add	r0, sp, #15
 2329 0018 FFF7FEFF 		bl	u8g2_m_16_8_f
 2330              	.LVL320:
 316:Core/u8g2/u8g2_d_setup.c ****   u8g2_SetupBuffer(u8g2, buf, tile_buf_height, u8g2_ll_hvline_vertical_top_lsb, rotation);
 2331              		.loc 1 316 0
 2332 001c 9DF80F20 		ldrb	r2, [sp, #15]	@ zero_extendqisi2
 2333 0020 0095     		str	r5, [sp]
 2334 0022 054B     		ldr	r3, .L143+8
 2335 0024 0146     		mov	r1, r0
 2336 0026 2046     		mov	r0, r4
 2337              	.LVL321:
 2338 0028 FFF7FEFF 		bl	u8g2_SetupBuffer
 2339              	.LVL322:
 317:Core/u8g2/u8g2_d_setup.c **** }
 2340              		.loc 1 317 0
 2341 002c 05B0     		add	sp, sp, #20
 2342              	.LCFI107:
 2343              		.cfi_def_cfa_offset 12
 2344              		@ sp needed
 2345 002e 30BD     		pop	{r4, r5, pc}
 2346              	.LVL323:
 2347              	.L144:
 2348              		.align	2
 2349              	.L143:
 2350 0030 00000000 		.word	u8x8_cad_ssd13xx_i2c
 2351 0034 00000000 		.word	u8x8_d_ssd1306_128x64_alt0
 2352 0038 00000000 		.word	u8g2_ll_hvline_vertical_top_lsb
 2353              		.cfi_endproc
 2354              	.LFE35:
 2356              		.section	.text.u8g2_Setup_sh1106_128x64_noname_1,"ax",%progbits
 2357              		.align	1
 2358              		.global	u8g2_Setup_sh1106_128x64_noname_1
 2359              		.syntax unified
 2360              		.thumb
 2361              		.thumb_func
 2362              		.fpu softvfp
 2364              	u8g2_Setup_sh1106_128x64_noname_1:
 2365              	.LFB36:
 318:Core/u8g2/u8g2_d_setup.c **** /* sh1106 */
 319:Core/u8g2/u8g2_d_setup.c **** /* sh1106 1 */
 320:Core/u8g2/u8g2_d_setup.c **** void u8g2_Setup_sh1106_128x64_noname_1(u8g2_t *u8g2, const u8g2_cb_t *rotation, u8x8_msg_cb byte_cb
 321:Core/u8g2/u8g2_d_setup.c **** {
 2366              		.loc 1 321 0
 2367              		.cfi_startproc
 2368              		@ args = 0, pretend = 0, frame = 8
 2369              		@ frame_needed = 0, uses_anonymous_args = 0
 2370              	.LVL324:
 2371 0000 30B5     		push	{r4, r5, lr}
 2372              	.LCFI108:
 2373              		.cfi_def_cfa_offset 12
 2374              		.cfi_offset 4, -12
ARM GAS  C:\Users\ASUS\AppData\Local\Temp\ccLOtXM9.s 			page 47


 2375              		.cfi_offset 5, -8
 2376              		.cfi_offset 14, -4
 2377 0002 85B0     		sub	sp, sp, #20
 2378              	.LCFI109:
 2379              		.cfi_def_cfa_offset 32
 2380 0004 0446     		mov	r4, r0
 2381 0006 0D46     		mov	r5, r1
 322:Core/u8g2/u8g2_d_setup.c ****   uint8_t tile_buf_height;
 323:Core/u8g2/u8g2_d_setup.c ****   uint8_t *buf;
 324:Core/u8g2/u8g2_d_setup.c ****   u8g2_SetupDisplay(u8g2, u8x8_d_sh1106_128x64_noname, u8x8_cad_001, byte_cb, gpio_and_delay_cb);
 2382              		.loc 1 324 0
 2383 0008 0093     		str	r3, [sp]
 2384 000a 1346     		mov	r3, r2
 2385              	.LVL325:
 2386 000c 084A     		ldr	r2, .L147
 2387              	.LVL326:
 2388 000e 0949     		ldr	r1, .L147+4
 2389              	.LVL327:
 2390 0010 FFF7FEFF 		bl	u8x8_Setup
 2391              	.LVL328:
 325:Core/u8g2/u8g2_d_setup.c ****   buf = u8g2_m_16_8_1(&tile_buf_height);
 2392              		.loc 1 325 0
 2393 0014 0DF10F00 		add	r0, sp, #15
 2394 0018 FFF7FEFF 		bl	u8g2_m_16_8_1
 2395              	.LVL329:
 326:Core/u8g2/u8g2_d_setup.c ****   u8g2_SetupBuffer(u8g2, buf, tile_buf_height, u8g2_ll_hvline_vertical_top_lsb, rotation);
 2396              		.loc 1 326 0
 2397 001c 9DF80F20 		ldrb	r2, [sp, #15]	@ zero_extendqisi2
 2398 0020 0095     		str	r5, [sp]
 2399 0022 054B     		ldr	r3, .L147+8
 2400 0024 0146     		mov	r1, r0
 2401 0026 2046     		mov	r0, r4
 2402              	.LVL330:
 2403 0028 FFF7FEFF 		bl	u8g2_SetupBuffer
 2404              	.LVL331:
 327:Core/u8g2/u8g2_d_setup.c **** }
 2405              		.loc 1 327 0
 2406 002c 05B0     		add	sp, sp, #20
 2407              	.LCFI110:
 2408              		.cfi_def_cfa_offset 12
 2409              		@ sp needed
 2410 002e 30BD     		pop	{r4, r5, pc}
 2411              	.LVL332:
 2412              	.L148:
 2413              		.align	2
 2414              	.L147:
 2415 0030 00000000 		.word	u8x8_cad_001
 2416 0034 00000000 		.word	u8x8_d_sh1106_128x64_noname
 2417 0038 00000000 		.word	u8g2_ll_hvline_vertical_top_lsb
 2418              		.cfi_endproc
 2419              	.LFE36:
 2421              		.section	.text.u8g2_Setup_sh1106_128x64_vcomh0_1,"ax",%progbits
 2422              		.align	1
 2423              		.global	u8g2_Setup_sh1106_128x64_vcomh0_1
 2424              		.syntax unified
 2425              		.thumb
 2426              		.thumb_func
ARM GAS  C:\Users\ASUS\AppData\Local\Temp\ccLOtXM9.s 			page 48


 2427              		.fpu softvfp
 2429              	u8g2_Setup_sh1106_128x64_vcomh0_1:
 2430              	.LFB37:
 328:Core/u8g2/u8g2_d_setup.c **** void u8g2_Setup_sh1106_128x64_vcomh0_1(u8g2_t *u8g2, const u8g2_cb_t *rotation, u8x8_msg_cb byte_cb
 329:Core/u8g2/u8g2_d_setup.c **** {
 2431              		.loc 1 329 0
 2432              		.cfi_startproc
 2433              		@ args = 0, pretend = 0, frame = 8
 2434              		@ frame_needed = 0, uses_anonymous_args = 0
 2435              	.LVL333:
 2436 0000 30B5     		push	{r4, r5, lr}
 2437              	.LCFI111:
 2438              		.cfi_def_cfa_offset 12
 2439              		.cfi_offset 4, -12
 2440              		.cfi_offset 5, -8
 2441              		.cfi_offset 14, -4
 2442 0002 85B0     		sub	sp, sp, #20
 2443              	.LCFI112:
 2444              		.cfi_def_cfa_offset 32
 2445 0004 0446     		mov	r4, r0
 2446 0006 0D46     		mov	r5, r1
 330:Core/u8g2/u8g2_d_setup.c ****   uint8_t tile_buf_height;
 331:Core/u8g2/u8g2_d_setup.c ****   uint8_t *buf;
 332:Core/u8g2/u8g2_d_setup.c ****   u8g2_SetupDisplay(u8g2, u8x8_d_sh1106_128x64_vcomh0, u8x8_cad_001, byte_cb, gpio_and_delay_cb);
 2447              		.loc 1 332 0
 2448 0008 0093     		str	r3, [sp]
 2449 000a 1346     		mov	r3, r2
 2450              	.LVL334:
 2451 000c 084A     		ldr	r2, .L151
 2452              	.LVL335:
 2453 000e 0949     		ldr	r1, .L151+4
 2454              	.LVL336:
 2455 0010 FFF7FEFF 		bl	u8x8_Setup
 2456              	.LVL337:
 333:Core/u8g2/u8g2_d_setup.c ****   buf = u8g2_m_16_8_1(&tile_buf_height);
 2457              		.loc 1 333 0
 2458 0014 0DF10F00 		add	r0, sp, #15
 2459 0018 FFF7FEFF 		bl	u8g2_m_16_8_1
 2460              	.LVL338:
 334:Core/u8g2/u8g2_d_setup.c ****   u8g2_SetupBuffer(u8g2, buf, tile_buf_height, u8g2_ll_hvline_vertical_top_lsb, rotation);
 2461              		.loc 1 334 0
 2462 001c 9DF80F20 		ldrb	r2, [sp, #15]	@ zero_extendqisi2
 2463 0020 0095     		str	r5, [sp]
 2464 0022 054B     		ldr	r3, .L151+8
 2465 0024 0146     		mov	r1, r0
 2466 0026 2046     		mov	r0, r4
 2467              	.LVL339:
 2468 0028 FFF7FEFF 		bl	u8g2_SetupBuffer
 2469              	.LVL340:
 335:Core/u8g2/u8g2_d_setup.c **** }
 2470              		.loc 1 335 0
 2471 002c 05B0     		add	sp, sp, #20
 2472              	.LCFI113:
 2473              		.cfi_def_cfa_offset 12
 2474              		@ sp needed
 2475 002e 30BD     		pop	{r4, r5, pc}
 2476              	.LVL341:
ARM GAS  C:\Users\ASUS\AppData\Local\Temp\ccLOtXM9.s 			page 49


 2477              	.L152:
 2478              		.align	2
 2479              	.L151:
 2480 0030 00000000 		.word	u8x8_cad_001
 2481 0034 00000000 		.word	u8x8_d_sh1106_128x64_vcomh0
 2482 0038 00000000 		.word	u8g2_ll_hvline_vertical_top_lsb
 2483              		.cfi_endproc
 2484              	.LFE37:
 2486              		.section	.text.u8g2_Setup_sh1106_128x64_winstar_1,"ax",%progbits
 2487              		.align	1
 2488              		.global	u8g2_Setup_sh1106_128x64_winstar_1
 2489              		.syntax unified
 2490              		.thumb
 2491              		.thumb_func
 2492              		.fpu softvfp
 2494              	u8g2_Setup_sh1106_128x64_winstar_1:
 2495              	.LFB38:
 336:Core/u8g2/u8g2_d_setup.c **** void u8g2_Setup_sh1106_128x64_winstar_1(u8g2_t *u8g2, const u8g2_cb_t *rotation, u8x8_msg_cb byte_c
 337:Core/u8g2/u8g2_d_setup.c **** {
 2496              		.loc 1 337 0
 2497              		.cfi_startproc
 2498              		@ args = 0, pretend = 0, frame = 8
 2499              		@ frame_needed = 0, uses_anonymous_args = 0
 2500              	.LVL342:
 2501 0000 30B5     		push	{r4, r5, lr}
 2502              	.LCFI114:
 2503              		.cfi_def_cfa_offset 12
 2504              		.cfi_offset 4, -12
 2505              		.cfi_offset 5, -8
 2506              		.cfi_offset 14, -4
 2507 0002 85B0     		sub	sp, sp, #20
 2508              	.LCFI115:
 2509              		.cfi_def_cfa_offset 32
 2510 0004 0446     		mov	r4, r0
 2511 0006 0D46     		mov	r5, r1
 338:Core/u8g2/u8g2_d_setup.c ****   uint8_t tile_buf_height;
 339:Core/u8g2/u8g2_d_setup.c ****   uint8_t *buf;
 340:Core/u8g2/u8g2_d_setup.c ****   u8g2_SetupDisplay(u8g2, u8x8_d_sh1106_128x64_winstar, u8x8_cad_001, byte_cb, gpio_and_delay_cb);
 2512              		.loc 1 340 0
 2513 0008 0093     		str	r3, [sp]
 2514 000a 1346     		mov	r3, r2
 2515              	.LVL343:
 2516 000c 084A     		ldr	r2, .L155
 2517              	.LVL344:
 2518 000e 0949     		ldr	r1, .L155+4
 2519              	.LVL345:
 2520 0010 FFF7FEFF 		bl	u8x8_Setup
 2521              	.LVL346:
 341:Core/u8g2/u8g2_d_setup.c ****   buf = u8g2_m_16_8_1(&tile_buf_height);
 2522              		.loc 1 341 0
 2523 0014 0DF10F00 		add	r0, sp, #15
 2524 0018 FFF7FEFF 		bl	u8g2_m_16_8_1
 2525              	.LVL347:
 342:Core/u8g2/u8g2_d_setup.c ****   u8g2_SetupBuffer(u8g2, buf, tile_buf_height, u8g2_ll_hvline_vertical_top_lsb, rotation);
 2526              		.loc 1 342 0
 2527 001c 9DF80F20 		ldrb	r2, [sp, #15]	@ zero_extendqisi2
 2528 0020 0095     		str	r5, [sp]
ARM GAS  C:\Users\ASUS\AppData\Local\Temp\ccLOtXM9.s 			page 50


 2529 0022 054B     		ldr	r3, .L155+8
 2530 0024 0146     		mov	r1, r0
 2531 0026 2046     		mov	r0, r4
 2532              	.LVL348:
 2533 0028 FFF7FEFF 		bl	u8g2_SetupBuffer
 2534              	.LVL349:
 343:Core/u8g2/u8g2_d_setup.c **** }
 2535              		.loc 1 343 0
 2536 002c 05B0     		add	sp, sp, #20
 2537              	.LCFI116:
 2538              		.cfi_def_cfa_offset 12
 2539              		@ sp needed
 2540 002e 30BD     		pop	{r4, r5, pc}
 2541              	.LVL350:
 2542              	.L156:
 2543              		.align	2
 2544              	.L155:
 2545 0030 00000000 		.word	u8x8_cad_001
 2546 0034 00000000 		.word	u8x8_d_sh1106_128x64_winstar
 2547 0038 00000000 		.word	u8g2_ll_hvline_vertical_top_lsb
 2548              		.cfi_endproc
 2549              	.LFE38:
 2551              		.section	.text.u8g2_Setup_sh1106_128x64_noname_2,"ax",%progbits
 2552              		.align	1
 2553              		.global	u8g2_Setup_sh1106_128x64_noname_2
 2554              		.syntax unified
 2555              		.thumb
 2556              		.thumb_func
 2557              		.fpu softvfp
 2559              	u8g2_Setup_sh1106_128x64_noname_2:
 2560              	.LFB39:
 344:Core/u8g2/u8g2_d_setup.c **** /* sh1106 2 */
 345:Core/u8g2/u8g2_d_setup.c **** void u8g2_Setup_sh1106_128x64_noname_2(u8g2_t *u8g2, const u8g2_cb_t *rotation, u8x8_msg_cb byte_cb
 346:Core/u8g2/u8g2_d_setup.c **** {
 2561              		.loc 1 346 0
 2562              		.cfi_startproc
 2563              		@ args = 0, pretend = 0, frame = 8
 2564              		@ frame_needed = 0, uses_anonymous_args = 0
 2565              	.LVL351:
 2566 0000 30B5     		push	{r4, r5, lr}
 2567              	.LCFI117:
 2568              		.cfi_def_cfa_offset 12
 2569              		.cfi_offset 4, -12
 2570              		.cfi_offset 5, -8
 2571              		.cfi_offset 14, -4
 2572 0002 85B0     		sub	sp, sp, #20
 2573              	.LCFI118:
 2574              		.cfi_def_cfa_offset 32
 2575 0004 0446     		mov	r4, r0
 2576 0006 0D46     		mov	r5, r1
 347:Core/u8g2/u8g2_d_setup.c ****   uint8_t tile_buf_height;
 348:Core/u8g2/u8g2_d_setup.c ****   uint8_t *buf;
 349:Core/u8g2/u8g2_d_setup.c ****   u8g2_SetupDisplay(u8g2, u8x8_d_sh1106_128x64_noname, u8x8_cad_001, byte_cb, gpio_and_delay_cb);
 2577              		.loc 1 349 0
 2578 0008 0093     		str	r3, [sp]
 2579 000a 1346     		mov	r3, r2
 2580              	.LVL352:
ARM GAS  C:\Users\ASUS\AppData\Local\Temp\ccLOtXM9.s 			page 51


 2581 000c 084A     		ldr	r2, .L159
 2582              	.LVL353:
 2583 000e 0949     		ldr	r1, .L159+4
 2584              	.LVL354:
 2585 0010 FFF7FEFF 		bl	u8x8_Setup
 2586              	.LVL355:
 350:Core/u8g2/u8g2_d_setup.c ****   buf = u8g2_m_16_8_2(&tile_buf_height);
 2587              		.loc 1 350 0
 2588 0014 0DF10F00 		add	r0, sp, #15
 2589 0018 FFF7FEFF 		bl	u8g2_m_16_8_2
 2590              	.LVL356:
 351:Core/u8g2/u8g2_d_setup.c ****   u8g2_SetupBuffer(u8g2, buf, tile_buf_height, u8g2_ll_hvline_vertical_top_lsb, rotation);
 2591              		.loc 1 351 0
 2592 001c 9DF80F20 		ldrb	r2, [sp, #15]	@ zero_extendqisi2
 2593 0020 0095     		str	r5, [sp]
 2594 0022 054B     		ldr	r3, .L159+8
 2595 0024 0146     		mov	r1, r0
 2596 0026 2046     		mov	r0, r4
 2597              	.LVL357:
 2598 0028 FFF7FEFF 		bl	u8g2_SetupBuffer
 2599              	.LVL358:
 352:Core/u8g2/u8g2_d_setup.c **** }
 2600              		.loc 1 352 0
 2601 002c 05B0     		add	sp, sp, #20
 2602              	.LCFI119:
 2603              		.cfi_def_cfa_offset 12
 2604              		@ sp needed
 2605 002e 30BD     		pop	{r4, r5, pc}
 2606              	.LVL359:
 2607              	.L160:
 2608              		.align	2
 2609              	.L159:
 2610 0030 00000000 		.word	u8x8_cad_001
 2611 0034 00000000 		.word	u8x8_d_sh1106_128x64_noname
 2612 0038 00000000 		.word	u8g2_ll_hvline_vertical_top_lsb
 2613              		.cfi_endproc
 2614              	.LFE39:
 2616              		.section	.text.u8g2_Setup_sh1106_128x64_vcomh0_2,"ax",%progbits
 2617              		.align	1
 2618              		.global	u8g2_Setup_sh1106_128x64_vcomh0_2
 2619              		.syntax unified
 2620              		.thumb
 2621              		.thumb_func
 2622              		.fpu softvfp
 2624              	u8g2_Setup_sh1106_128x64_vcomh0_2:
 2625              	.LFB40:
 353:Core/u8g2/u8g2_d_setup.c **** void u8g2_Setup_sh1106_128x64_vcomh0_2(u8g2_t *u8g2, const u8g2_cb_t *rotation, u8x8_msg_cb byte_cb
 354:Core/u8g2/u8g2_d_setup.c **** {
 2626              		.loc 1 354 0
 2627              		.cfi_startproc
 2628              		@ args = 0, pretend = 0, frame = 8
 2629              		@ frame_needed = 0, uses_anonymous_args = 0
 2630              	.LVL360:
 2631 0000 30B5     		push	{r4, r5, lr}
 2632              	.LCFI120:
 2633              		.cfi_def_cfa_offset 12
 2634              		.cfi_offset 4, -12
ARM GAS  C:\Users\ASUS\AppData\Local\Temp\ccLOtXM9.s 			page 52


 2635              		.cfi_offset 5, -8
 2636              		.cfi_offset 14, -4
 2637 0002 85B0     		sub	sp, sp, #20
 2638              	.LCFI121:
 2639              		.cfi_def_cfa_offset 32
 2640 0004 0446     		mov	r4, r0
 2641 0006 0D46     		mov	r5, r1
 355:Core/u8g2/u8g2_d_setup.c ****   uint8_t tile_buf_height;
 356:Core/u8g2/u8g2_d_setup.c ****   uint8_t *buf;
 357:Core/u8g2/u8g2_d_setup.c ****   u8g2_SetupDisplay(u8g2, u8x8_d_sh1106_128x64_vcomh0, u8x8_cad_001, byte_cb, gpio_and_delay_cb);
 2642              		.loc 1 357 0
 2643 0008 0093     		str	r3, [sp]
 2644 000a 1346     		mov	r3, r2
 2645              	.LVL361:
 2646 000c 084A     		ldr	r2, .L163
 2647              	.LVL362:
 2648 000e 0949     		ldr	r1, .L163+4
 2649              	.LVL363:
 2650 0010 FFF7FEFF 		bl	u8x8_Setup
 2651              	.LVL364:
 358:Core/u8g2/u8g2_d_setup.c ****   buf = u8g2_m_16_8_2(&tile_buf_height);
 2652              		.loc 1 358 0
 2653 0014 0DF10F00 		add	r0, sp, #15
 2654 0018 FFF7FEFF 		bl	u8g2_m_16_8_2
 2655              	.LVL365:
 359:Core/u8g2/u8g2_d_setup.c ****   u8g2_SetupBuffer(u8g2, buf, tile_buf_height, u8g2_ll_hvline_vertical_top_lsb, rotation);
 2656              		.loc 1 359 0
 2657 001c 9DF80F20 		ldrb	r2, [sp, #15]	@ zero_extendqisi2
 2658 0020 0095     		str	r5, [sp]
 2659 0022 054B     		ldr	r3, .L163+8
 2660 0024 0146     		mov	r1, r0
 2661 0026 2046     		mov	r0, r4
 2662              	.LVL366:
 2663 0028 FFF7FEFF 		bl	u8g2_SetupBuffer
 2664              	.LVL367:
 360:Core/u8g2/u8g2_d_setup.c **** }
 2665              		.loc 1 360 0
 2666 002c 05B0     		add	sp, sp, #20
 2667              	.LCFI122:
 2668              		.cfi_def_cfa_offset 12
 2669              		@ sp needed
 2670 002e 30BD     		pop	{r4, r5, pc}
 2671              	.LVL368:
 2672              	.L164:
 2673              		.align	2
 2674              	.L163:
 2675 0030 00000000 		.word	u8x8_cad_001
 2676 0034 00000000 		.word	u8x8_d_sh1106_128x64_vcomh0
 2677 0038 00000000 		.word	u8g2_ll_hvline_vertical_top_lsb
 2678              		.cfi_endproc
 2679              	.LFE40:
 2681              		.section	.text.u8g2_Setup_sh1106_128x64_winstar_2,"ax",%progbits
 2682              		.align	1
 2683              		.global	u8g2_Setup_sh1106_128x64_winstar_2
 2684              		.syntax unified
 2685              		.thumb
 2686              		.thumb_func
ARM GAS  C:\Users\ASUS\AppData\Local\Temp\ccLOtXM9.s 			page 53


 2687              		.fpu softvfp
 2689              	u8g2_Setup_sh1106_128x64_winstar_2:
 2690              	.LFB41:
 361:Core/u8g2/u8g2_d_setup.c **** void u8g2_Setup_sh1106_128x64_winstar_2(u8g2_t *u8g2, const u8g2_cb_t *rotation, u8x8_msg_cb byte_c
 362:Core/u8g2/u8g2_d_setup.c **** {
 2691              		.loc 1 362 0
 2692              		.cfi_startproc
 2693              		@ args = 0, pretend = 0, frame = 8
 2694              		@ frame_needed = 0, uses_anonymous_args = 0
 2695              	.LVL369:
 2696 0000 30B5     		push	{r4, r5, lr}
 2697              	.LCFI123:
 2698              		.cfi_def_cfa_offset 12
 2699              		.cfi_offset 4, -12
 2700              		.cfi_offset 5, -8
 2701              		.cfi_offset 14, -4
 2702 0002 85B0     		sub	sp, sp, #20
 2703              	.LCFI124:
 2704              		.cfi_def_cfa_offset 32
 2705 0004 0446     		mov	r4, r0
 2706 0006 0D46     		mov	r5, r1
 363:Core/u8g2/u8g2_d_setup.c ****   uint8_t tile_buf_height;
 364:Core/u8g2/u8g2_d_setup.c ****   uint8_t *buf;
 365:Core/u8g2/u8g2_d_setup.c ****   u8g2_SetupDisplay(u8g2, u8x8_d_sh1106_128x64_winstar, u8x8_cad_001, byte_cb, gpio_and_delay_cb);
 2707              		.loc 1 365 0
 2708 0008 0093     		str	r3, [sp]
 2709 000a 1346     		mov	r3, r2
 2710              	.LVL370:
 2711 000c 084A     		ldr	r2, .L167
 2712              	.LVL371:
 2713 000e 0949     		ldr	r1, .L167+4
 2714              	.LVL372:
 2715 0010 FFF7FEFF 		bl	u8x8_Setup
 2716              	.LVL373:
 366:Core/u8g2/u8g2_d_setup.c ****   buf = u8g2_m_16_8_2(&tile_buf_height);
 2717              		.loc 1 366 0
 2718 0014 0DF10F00 		add	r0, sp, #15
 2719 0018 FFF7FEFF 		bl	u8g2_m_16_8_2
 2720              	.LVL374:
 367:Core/u8g2/u8g2_d_setup.c ****   u8g2_SetupBuffer(u8g2, buf, tile_buf_height, u8g2_ll_hvline_vertical_top_lsb, rotation);
 2721              		.loc 1 367 0
 2722 001c 9DF80F20 		ldrb	r2, [sp, #15]	@ zero_extendqisi2
 2723 0020 0095     		str	r5, [sp]
 2724 0022 054B     		ldr	r3, .L167+8
 2725 0024 0146     		mov	r1, r0
 2726 0026 2046     		mov	r0, r4
 2727              	.LVL375:
 2728 0028 FFF7FEFF 		bl	u8g2_SetupBuffer
 2729              	.LVL376:
 368:Core/u8g2/u8g2_d_setup.c **** }
 2730              		.loc 1 368 0
 2731 002c 05B0     		add	sp, sp, #20
 2732              	.LCFI125:
 2733              		.cfi_def_cfa_offset 12
 2734              		@ sp needed
 2735 002e 30BD     		pop	{r4, r5, pc}
 2736              	.LVL377:
ARM GAS  C:\Users\ASUS\AppData\Local\Temp\ccLOtXM9.s 			page 54


 2737              	.L168:
 2738              		.align	2
 2739              	.L167:
 2740 0030 00000000 		.word	u8x8_cad_001
 2741 0034 00000000 		.word	u8x8_d_sh1106_128x64_winstar
 2742 0038 00000000 		.word	u8g2_ll_hvline_vertical_top_lsb
 2743              		.cfi_endproc
 2744              	.LFE41:
 2746              		.section	.text.u8g2_Setup_sh1106_128x64_noname_f,"ax",%progbits
 2747              		.align	1
 2748              		.global	u8g2_Setup_sh1106_128x64_noname_f
 2749              		.syntax unified
 2750              		.thumb
 2751              		.thumb_func
 2752              		.fpu softvfp
 2754              	u8g2_Setup_sh1106_128x64_noname_f:
 2755              	.LFB42:
 369:Core/u8g2/u8g2_d_setup.c **** /* sh1106 f */
 370:Core/u8g2/u8g2_d_setup.c **** void u8g2_Setup_sh1106_128x64_noname_f(u8g2_t *u8g2, const u8g2_cb_t *rotation, u8x8_msg_cb byte_cb
 371:Core/u8g2/u8g2_d_setup.c **** {
 2756              		.loc 1 371 0
 2757              		.cfi_startproc
 2758              		@ args = 0, pretend = 0, frame = 8
 2759              		@ frame_needed = 0, uses_anonymous_args = 0
 2760              	.LVL378:
 2761 0000 30B5     		push	{r4, r5, lr}
 2762              	.LCFI126:
 2763              		.cfi_def_cfa_offset 12
 2764              		.cfi_offset 4, -12
 2765              		.cfi_offset 5, -8
 2766              		.cfi_offset 14, -4
 2767 0002 85B0     		sub	sp, sp, #20
 2768              	.LCFI127:
 2769              		.cfi_def_cfa_offset 32
 2770 0004 0446     		mov	r4, r0
 2771 0006 0D46     		mov	r5, r1
 372:Core/u8g2/u8g2_d_setup.c ****   uint8_t tile_buf_height;
 373:Core/u8g2/u8g2_d_setup.c ****   uint8_t *buf;
 374:Core/u8g2/u8g2_d_setup.c ****   u8g2_SetupDisplay(u8g2, u8x8_d_sh1106_128x64_noname, u8x8_cad_001, byte_cb, gpio_and_delay_cb);
 2772              		.loc 1 374 0
 2773 0008 0093     		str	r3, [sp]
 2774 000a 1346     		mov	r3, r2
 2775              	.LVL379:
 2776 000c 084A     		ldr	r2, .L171
 2777              	.LVL380:
 2778 000e 0949     		ldr	r1, .L171+4
 2779              	.LVL381:
 2780 0010 FFF7FEFF 		bl	u8x8_Setup
 2781              	.LVL382:
 375:Core/u8g2/u8g2_d_setup.c ****   buf = u8g2_m_16_8_f(&tile_buf_height);
 2782              		.loc 1 375 0
 2783 0014 0DF10F00 		add	r0, sp, #15
 2784 0018 FFF7FEFF 		bl	u8g2_m_16_8_f
 2785              	.LVL383:
 376:Core/u8g2/u8g2_d_setup.c ****   u8g2_SetupBuffer(u8g2, buf, tile_buf_height, u8g2_ll_hvline_vertical_top_lsb, rotation);
 2786              		.loc 1 376 0
 2787 001c 9DF80F20 		ldrb	r2, [sp, #15]	@ zero_extendqisi2
ARM GAS  C:\Users\ASUS\AppData\Local\Temp\ccLOtXM9.s 			page 55


 2788 0020 0095     		str	r5, [sp]
 2789 0022 054B     		ldr	r3, .L171+8
 2790 0024 0146     		mov	r1, r0
 2791 0026 2046     		mov	r0, r4
 2792              	.LVL384:
 2793 0028 FFF7FEFF 		bl	u8g2_SetupBuffer
 2794              	.LVL385:
 377:Core/u8g2/u8g2_d_setup.c **** }
 2795              		.loc 1 377 0
 2796 002c 05B0     		add	sp, sp, #20
 2797              	.LCFI128:
 2798              		.cfi_def_cfa_offset 12
 2799              		@ sp needed
 2800 002e 30BD     		pop	{r4, r5, pc}
 2801              	.LVL386:
 2802              	.L172:
 2803              		.align	2
 2804              	.L171:
 2805 0030 00000000 		.word	u8x8_cad_001
 2806 0034 00000000 		.word	u8x8_d_sh1106_128x64_noname
 2807 0038 00000000 		.word	u8g2_ll_hvline_vertical_top_lsb
 2808              		.cfi_endproc
 2809              	.LFE42:
 2811              		.section	.text.u8g2_Setup_sh1106_128x64_vcomh0_f,"ax",%progbits
 2812              		.align	1
 2813              		.global	u8g2_Setup_sh1106_128x64_vcomh0_f
 2814              		.syntax unified
 2815              		.thumb
 2816              		.thumb_func
 2817              		.fpu softvfp
 2819              	u8g2_Setup_sh1106_128x64_vcomh0_f:
 2820              	.LFB43:
 378:Core/u8g2/u8g2_d_setup.c **** void u8g2_Setup_sh1106_128x64_vcomh0_f(u8g2_t *u8g2, const u8g2_cb_t *rotation, u8x8_msg_cb byte_cb
 379:Core/u8g2/u8g2_d_setup.c **** {
 2821              		.loc 1 379 0
 2822              		.cfi_startproc
 2823              		@ args = 0, pretend = 0, frame = 8
 2824              		@ frame_needed = 0, uses_anonymous_args = 0
 2825              	.LVL387:
 2826 0000 30B5     		push	{r4, r5, lr}
 2827              	.LCFI129:
 2828              		.cfi_def_cfa_offset 12
 2829              		.cfi_offset 4, -12
 2830              		.cfi_offset 5, -8
 2831              		.cfi_offset 14, -4
 2832 0002 85B0     		sub	sp, sp, #20
 2833              	.LCFI130:
 2834              		.cfi_def_cfa_offset 32
 2835 0004 0446     		mov	r4, r0
 2836 0006 0D46     		mov	r5, r1
 380:Core/u8g2/u8g2_d_setup.c ****   uint8_t tile_buf_height;
 381:Core/u8g2/u8g2_d_setup.c ****   uint8_t *buf;
 382:Core/u8g2/u8g2_d_setup.c ****   u8g2_SetupDisplay(u8g2, u8x8_d_sh1106_128x64_vcomh0, u8x8_cad_001, byte_cb, gpio_and_delay_cb);
 2837              		.loc 1 382 0
 2838 0008 0093     		str	r3, [sp]
 2839 000a 1346     		mov	r3, r2
 2840              	.LVL388:
ARM GAS  C:\Users\ASUS\AppData\Local\Temp\ccLOtXM9.s 			page 56


 2841 000c 084A     		ldr	r2, .L175
 2842              	.LVL389:
 2843 000e 0949     		ldr	r1, .L175+4
 2844              	.LVL390:
 2845 0010 FFF7FEFF 		bl	u8x8_Setup
 2846              	.LVL391:
 383:Core/u8g2/u8g2_d_setup.c ****   buf = u8g2_m_16_8_f(&tile_buf_height);
 2847              		.loc 1 383 0
 2848 0014 0DF10F00 		add	r0, sp, #15
 2849 0018 FFF7FEFF 		bl	u8g2_m_16_8_f
 2850              	.LVL392:
 384:Core/u8g2/u8g2_d_setup.c ****   u8g2_SetupBuffer(u8g2, buf, tile_buf_height, u8g2_ll_hvline_vertical_top_lsb, rotation);
 2851              		.loc 1 384 0
 2852 001c 9DF80F20 		ldrb	r2, [sp, #15]	@ zero_extendqisi2
 2853 0020 0095     		str	r5, [sp]
 2854 0022 054B     		ldr	r3, .L175+8
 2855 0024 0146     		mov	r1, r0
 2856 0026 2046     		mov	r0, r4
 2857              	.LVL393:
 2858 0028 FFF7FEFF 		bl	u8g2_SetupBuffer
 2859              	.LVL394:
 385:Core/u8g2/u8g2_d_setup.c **** }
 2860              		.loc 1 385 0
 2861 002c 05B0     		add	sp, sp, #20
 2862              	.LCFI131:
 2863              		.cfi_def_cfa_offset 12
 2864              		@ sp needed
 2865 002e 30BD     		pop	{r4, r5, pc}
 2866              	.LVL395:
 2867              	.L176:
 2868              		.align	2
 2869              	.L175:
 2870 0030 00000000 		.word	u8x8_cad_001
 2871 0034 00000000 		.word	u8x8_d_sh1106_128x64_vcomh0
 2872 0038 00000000 		.word	u8g2_ll_hvline_vertical_top_lsb
 2873              		.cfi_endproc
 2874              	.LFE43:
 2876              		.section	.text.u8g2_Setup_sh1106_128x64_winstar_f,"ax",%progbits
 2877              		.align	1
 2878              		.global	u8g2_Setup_sh1106_128x64_winstar_f
 2879              		.syntax unified
 2880              		.thumb
 2881              		.thumb_func
 2882              		.fpu softvfp
 2884              	u8g2_Setup_sh1106_128x64_winstar_f:
 2885              	.LFB44:
 386:Core/u8g2/u8g2_d_setup.c **** void u8g2_Setup_sh1106_128x64_winstar_f(u8g2_t *u8g2, const u8g2_cb_t *rotation, u8x8_msg_cb byte_c
 387:Core/u8g2/u8g2_d_setup.c **** {
 2886              		.loc 1 387 0
 2887              		.cfi_startproc
 2888              		@ args = 0, pretend = 0, frame = 8
 2889              		@ frame_needed = 0, uses_anonymous_args = 0
 2890              	.LVL396:
 2891 0000 30B5     		push	{r4, r5, lr}
 2892              	.LCFI132:
 2893              		.cfi_def_cfa_offset 12
 2894              		.cfi_offset 4, -12
ARM GAS  C:\Users\ASUS\AppData\Local\Temp\ccLOtXM9.s 			page 57


 2895              		.cfi_offset 5, -8
 2896              		.cfi_offset 14, -4
 2897 0002 85B0     		sub	sp, sp, #20
 2898              	.LCFI133:
 2899              		.cfi_def_cfa_offset 32
 2900 0004 0446     		mov	r4, r0
 2901 0006 0D46     		mov	r5, r1
 388:Core/u8g2/u8g2_d_setup.c ****   uint8_t tile_buf_height;
 389:Core/u8g2/u8g2_d_setup.c ****   uint8_t *buf;
 390:Core/u8g2/u8g2_d_setup.c ****   u8g2_SetupDisplay(u8g2, u8x8_d_sh1106_128x64_winstar, u8x8_cad_001, byte_cb, gpio_and_delay_cb);
 2902              		.loc 1 390 0
 2903 0008 0093     		str	r3, [sp]
 2904 000a 1346     		mov	r3, r2
 2905              	.LVL397:
 2906 000c 084A     		ldr	r2, .L179
 2907              	.LVL398:
 2908 000e 0949     		ldr	r1, .L179+4
 2909              	.LVL399:
 2910 0010 FFF7FEFF 		bl	u8x8_Setup
 2911              	.LVL400:
 391:Core/u8g2/u8g2_d_setup.c ****   buf = u8g2_m_16_8_f(&tile_buf_height);
 2912              		.loc 1 391 0
 2913 0014 0DF10F00 		add	r0, sp, #15
 2914 0018 FFF7FEFF 		bl	u8g2_m_16_8_f
 2915              	.LVL401:
 392:Core/u8g2/u8g2_d_setup.c ****   u8g2_SetupBuffer(u8g2, buf, tile_buf_height, u8g2_ll_hvline_vertical_top_lsb, rotation);
 2916              		.loc 1 392 0
 2917 001c 9DF80F20 		ldrb	r2, [sp, #15]	@ zero_extendqisi2
 2918 0020 0095     		str	r5, [sp]
 2919 0022 054B     		ldr	r3, .L179+8
 2920 0024 0146     		mov	r1, r0
 2921 0026 2046     		mov	r0, r4
 2922              	.LVL402:
 2923 0028 FFF7FEFF 		bl	u8g2_SetupBuffer
 2924              	.LVL403:
 393:Core/u8g2/u8g2_d_setup.c **** }
 2925              		.loc 1 393 0
 2926 002c 05B0     		add	sp, sp, #20
 2927              	.LCFI134:
 2928              		.cfi_def_cfa_offset 12
 2929              		@ sp needed
 2930 002e 30BD     		pop	{r4, r5, pc}
 2931              	.LVL404:
 2932              	.L180:
 2933              		.align	2
 2934              	.L179:
 2935 0030 00000000 		.word	u8x8_cad_001
 2936 0034 00000000 		.word	u8x8_d_sh1106_128x64_winstar
 2937 0038 00000000 		.word	u8g2_ll_hvline_vertical_top_lsb
 2938              		.cfi_endproc
 2939              	.LFE44:
 2941              		.section	.text.u8g2_Setup_sh1106_i2c_128x64_noname_1,"ax",%progbits
 2942              		.align	1
 2943              		.global	u8g2_Setup_sh1106_i2c_128x64_noname_1
 2944              		.syntax unified
 2945              		.thumb
 2946              		.thumb_func
ARM GAS  C:\Users\ASUS\AppData\Local\Temp\ccLOtXM9.s 			page 58


 2947              		.fpu softvfp
 2949              	u8g2_Setup_sh1106_i2c_128x64_noname_1:
 2950              	.LFB45:
 394:Core/u8g2/u8g2_d_setup.c **** /* sh1106 */
 395:Core/u8g2/u8g2_d_setup.c **** /* sh1106 1 */
 396:Core/u8g2/u8g2_d_setup.c **** void u8g2_Setup_sh1106_i2c_128x64_noname_1(u8g2_t *u8g2, const u8g2_cb_t *rotation, u8x8_msg_cb byt
 397:Core/u8g2/u8g2_d_setup.c **** {
 2951              		.loc 1 397 0
 2952              		.cfi_startproc
 2953              		@ args = 0, pretend = 0, frame = 8
 2954              		@ frame_needed = 0, uses_anonymous_args = 0
 2955              	.LVL405:
 2956 0000 30B5     		push	{r4, r5, lr}
 2957              	.LCFI135:
 2958              		.cfi_def_cfa_offset 12
 2959              		.cfi_offset 4, -12
 2960              		.cfi_offset 5, -8
 2961              		.cfi_offset 14, -4
 2962 0002 85B0     		sub	sp, sp, #20
 2963              	.LCFI136:
 2964              		.cfi_def_cfa_offset 32
 2965 0004 0446     		mov	r4, r0
 2966 0006 0D46     		mov	r5, r1
 398:Core/u8g2/u8g2_d_setup.c ****   uint8_t tile_buf_height;
 399:Core/u8g2/u8g2_d_setup.c ****   uint8_t *buf;
 400:Core/u8g2/u8g2_d_setup.c ****   u8g2_SetupDisplay(u8g2, u8x8_d_sh1106_128x64_noname, u8x8_cad_ssd13xx_i2c, byte_cb, gpio_and_dela
 2967              		.loc 1 400 0
 2968 0008 0093     		str	r3, [sp]
 2969 000a 1346     		mov	r3, r2
 2970              	.LVL406:
 2971 000c 084A     		ldr	r2, .L183
 2972              	.LVL407:
 2973 000e 0949     		ldr	r1, .L183+4
 2974              	.LVL408:
 2975 0010 FFF7FEFF 		bl	u8x8_Setup
 2976              	.LVL409:
 401:Core/u8g2/u8g2_d_setup.c ****   buf = u8g2_m_16_8_1(&tile_buf_height);
 2977              		.loc 1 401 0
 2978 0014 0DF10F00 		add	r0, sp, #15
 2979 0018 FFF7FEFF 		bl	u8g2_m_16_8_1
 2980              	.LVL410:
 402:Core/u8g2/u8g2_d_setup.c ****   u8g2_SetupBuffer(u8g2, buf, tile_buf_height, u8g2_ll_hvline_vertical_top_lsb, rotation);
 2981              		.loc 1 402 0
 2982 001c 9DF80F20 		ldrb	r2, [sp, #15]	@ zero_extendqisi2
 2983 0020 0095     		str	r5, [sp]
 2984 0022 054B     		ldr	r3, .L183+8
 2985 0024 0146     		mov	r1, r0
 2986 0026 2046     		mov	r0, r4
 2987              	.LVL411:
 2988 0028 FFF7FEFF 		bl	u8g2_SetupBuffer
 2989              	.LVL412:
 403:Core/u8g2/u8g2_d_setup.c **** }
 2990              		.loc 1 403 0
 2991 002c 05B0     		add	sp, sp, #20
 2992              	.LCFI137:
 2993              		.cfi_def_cfa_offset 12
 2994              		@ sp needed
ARM GAS  C:\Users\ASUS\AppData\Local\Temp\ccLOtXM9.s 			page 59


 2995 002e 30BD     		pop	{r4, r5, pc}
 2996              	.LVL413:
 2997              	.L184:
 2998              		.align	2
 2999              	.L183:
 3000 0030 00000000 		.word	u8x8_cad_ssd13xx_i2c
 3001 0034 00000000 		.word	u8x8_d_sh1106_128x64_noname
 3002 0038 00000000 		.word	u8g2_ll_hvline_vertical_top_lsb
 3003              		.cfi_endproc
 3004              	.LFE45:
 3006              		.section	.text.u8g2_Setup_sh1106_i2c_128x64_vcomh0_1,"ax",%progbits
 3007              		.align	1
 3008              		.global	u8g2_Setup_sh1106_i2c_128x64_vcomh0_1
 3009              		.syntax unified
 3010              		.thumb
 3011              		.thumb_func
 3012              		.fpu softvfp
 3014              	u8g2_Setup_sh1106_i2c_128x64_vcomh0_1:
 3015              	.LFB46:
 404:Core/u8g2/u8g2_d_setup.c **** void u8g2_Setup_sh1106_i2c_128x64_vcomh0_1(u8g2_t *u8g2, const u8g2_cb_t *rotation, u8x8_msg_cb byt
 405:Core/u8g2/u8g2_d_setup.c **** {
 3016              		.loc 1 405 0
 3017              		.cfi_startproc
 3018              		@ args = 0, pretend = 0, frame = 8
 3019              		@ frame_needed = 0, uses_anonymous_args = 0
 3020              	.LVL414:
 3021 0000 30B5     		push	{r4, r5, lr}
 3022              	.LCFI138:
 3023              		.cfi_def_cfa_offset 12
 3024              		.cfi_offset 4, -12
 3025              		.cfi_offset 5, -8
 3026              		.cfi_offset 14, -4
 3027 0002 85B0     		sub	sp, sp, #20
 3028              	.LCFI139:
 3029              		.cfi_def_cfa_offset 32
 3030 0004 0446     		mov	r4, r0
 3031 0006 0D46     		mov	r5, r1
 406:Core/u8g2/u8g2_d_setup.c ****   uint8_t tile_buf_height;
 407:Core/u8g2/u8g2_d_setup.c ****   uint8_t *buf;
 408:Core/u8g2/u8g2_d_setup.c ****   u8g2_SetupDisplay(u8g2, u8x8_d_sh1106_128x64_vcomh0, u8x8_cad_ssd13xx_i2c, byte_cb, gpio_and_dela
 3032              		.loc 1 408 0
 3033 0008 0093     		str	r3, [sp]
 3034 000a 1346     		mov	r3, r2
 3035              	.LVL415:
 3036 000c 084A     		ldr	r2, .L187
 3037              	.LVL416:
 3038 000e 0949     		ldr	r1, .L187+4
 3039              	.LVL417:
 3040 0010 FFF7FEFF 		bl	u8x8_Setup
 3041              	.LVL418:
 409:Core/u8g2/u8g2_d_setup.c ****   buf = u8g2_m_16_8_1(&tile_buf_height);
 3042              		.loc 1 409 0
 3043 0014 0DF10F00 		add	r0, sp, #15
 3044 0018 FFF7FEFF 		bl	u8g2_m_16_8_1
 3045              	.LVL419:
 410:Core/u8g2/u8g2_d_setup.c ****   u8g2_SetupBuffer(u8g2, buf, tile_buf_height, u8g2_ll_hvline_vertical_top_lsb, rotation);
 3046              		.loc 1 410 0
ARM GAS  C:\Users\ASUS\AppData\Local\Temp\ccLOtXM9.s 			page 60


 3047 001c 9DF80F20 		ldrb	r2, [sp, #15]	@ zero_extendqisi2
 3048 0020 0095     		str	r5, [sp]
 3049 0022 054B     		ldr	r3, .L187+8
 3050 0024 0146     		mov	r1, r0
 3051 0026 2046     		mov	r0, r4
 3052              	.LVL420:
 3053 0028 FFF7FEFF 		bl	u8g2_SetupBuffer
 3054              	.LVL421:
 411:Core/u8g2/u8g2_d_setup.c **** }
 3055              		.loc 1 411 0
 3056 002c 05B0     		add	sp, sp, #20
 3057              	.LCFI140:
 3058              		.cfi_def_cfa_offset 12
 3059              		@ sp needed
 3060 002e 30BD     		pop	{r4, r5, pc}
 3061              	.LVL422:
 3062              	.L188:
 3063              		.align	2
 3064              	.L187:
 3065 0030 00000000 		.word	u8x8_cad_ssd13xx_i2c
 3066 0034 00000000 		.word	u8x8_d_sh1106_128x64_vcomh0
 3067 0038 00000000 		.word	u8g2_ll_hvline_vertical_top_lsb
 3068              		.cfi_endproc
 3069              	.LFE46:
 3071              		.section	.text.u8g2_Setup_sh1106_i2c_128x64_winstar_1,"ax",%progbits
 3072              		.align	1
 3073              		.global	u8g2_Setup_sh1106_i2c_128x64_winstar_1
 3074              		.syntax unified
 3075              		.thumb
 3076              		.thumb_func
 3077              		.fpu softvfp
 3079              	u8g2_Setup_sh1106_i2c_128x64_winstar_1:
 3080              	.LFB47:
 412:Core/u8g2/u8g2_d_setup.c **** void u8g2_Setup_sh1106_i2c_128x64_winstar_1(u8g2_t *u8g2, const u8g2_cb_t *rotation, u8x8_msg_cb by
 413:Core/u8g2/u8g2_d_setup.c **** {
 3081              		.loc 1 413 0
 3082              		.cfi_startproc
 3083              		@ args = 0, pretend = 0, frame = 8
 3084              		@ frame_needed = 0, uses_anonymous_args = 0
 3085              	.LVL423:
 3086 0000 30B5     		push	{r4, r5, lr}
 3087              	.LCFI141:
 3088              		.cfi_def_cfa_offset 12
 3089              		.cfi_offset 4, -12
 3090              		.cfi_offset 5, -8
 3091              		.cfi_offset 14, -4
 3092 0002 85B0     		sub	sp, sp, #20
 3093              	.LCFI142:
 3094              		.cfi_def_cfa_offset 32
 3095 0004 0446     		mov	r4, r0
 3096 0006 0D46     		mov	r5, r1
 414:Core/u8g2/u8g2_d_setup.c ****   uint8_t tile_buf_height;
 415:Core/u8g2/u8g2_d_setup.c ****   uint8_t *buf;
 416:Core/u8g2/u8g2_d_setup.c ****   u8g2_SetupDisplay(u8g2, u8x8_d_sh1106_128x64_winstar, u8x8_cad_ssd13xx_i2c, byte_cb, gpio_and_del
 3097              		.loc 1 416 0
 3098 0008 0093     		str	r3, [sp]
 3099 000a 1346     		mov	r3, r2
ARM GAS  C:\Users\ASUS\AppData\Local\Temp\ccLOtXM9.s 			page 61


 3100              	.LVL424:
 3101 000c 084A     		ldr	r2, .L191
 3102              	.LVL425:
 3103 000e 0949     		ldr	r1, .L191+4
 3104              	.LVL426:
 3105 0010 FFF7FEFF 		bl	u8x8_Setup
 3106              	.LVL427:
 417:Core/u8g2/u8g2_d_setup.c ****   buf = u8g2_m_16_8_1(&tile_buf_height);
 3107              		.loc 1 417 0
 3108 0014 0DF10F00 		add	r0, sp, #15
 3109 0018 FFF7FEFF 		bl	u8g2_m_16_8_1
 3110              	.LVL428:
 418:Core/u8g2/u8g2_d_setup.c ****   u8g2_SetupBuffer(u8g2, buf, tile_buf_height, u8g2_ll_hvline_vertical_top_lsb, rotation);
 3111              		.loc 1 418 0
 3112 001c 9DF80F20 		ldrb	r2, [sp, #15]	@ zero_extendqisi2
 3113 0020 0095     		str	r5, [sp]
 3114 0022 054B     		ldr	r3, .L191+8
 3115 0024 0146     		mov	r1, r0
 3116 0026 2046     		mov	r0, r4
 3117              	.LVL429:
 3118 0028 FFF7FEFF 		bl	u8g2_SetupBuffer
 3119              	.LVL430:
 419:Core/u8g2/u8g2_d_setup.c **** }
 3120              		.loc 1 419 0
 3121 002c 05B0     		add	sp, sp, #20
 3122              	.LCFI143:
 3123              		.cfi_def_cfa_offset 12
 3124              		@ sp needed
 3125 002e 30BD     		pop	{r4, r5, pc}
 3126              	.LVL431:
 3127              	.L192:
 3128              		.align	2
 3129              	.L191:
 3130 0030 00000000 		.word	u8x8_cad_ssd13xx_i2c
 3131 0034 00000000 		.word	u8x8_d_sh1106_128x64_winstar
 3132 0038 00000000 		.word	u8g2_ll_hvline_vertical_top_lsb
 3133              		.cfi_endproc
 3134              	.LFE47:
 3136              		.section	.text.u8g2_Setup_sh1106_i2c_128x64_noname_2,"ax",%progbits
 3137              		.align	1
 3138              		.global	u8g2_Setup_sh1106_i2c_128x64_noname_2
 3139              		.syntax unified
 3140              		.thumb
 3141              		.thumb_func
 3142              		.fpu softvfp
 3144              	u8g2_Setup_sh1106_i2c_128x64_noname_2:
 3145              	.LFB48:
 420:Core/u8g2/u8g2_d_setup.c **** /* sh1106 2 */
 421:Core/u8g2/u8g2_d_setup.c **** void u8g2_Setup_sh1106_i2c_128x64_noname_2(u8g2_t *u8g2, const u8g2_cb_t *rotation, u8x8_msg_cb byt
 422:Core/u8g2/u8g2_d_setup.c **** {
 3146              		.loc 1 422 0
 3147              		.cfi_startproc
 3148              		@ args = 0, pretend = 0, frame = 8
 3149              		@ frame_needed = 0, uses_anonymous_args = 0
 3150              	.LVL432:
 3151 0000 30B5     		push	{r4, r5, lr}
 3152              	.LCFI144:
ARM GAS  C:\Users\ASUS\AppData\Local\Temp\ccLOtXM9.s 			page 62


 3153              		.cfi_def_cfa_offset 12
 3154              		.cfi_offset 4, -12
 3155              		.cfi_offset 5, -8
 3156              		.cfi_offset 14, -4
 3157 0002 85B0     		sub	sp, sp, #20
 3158              	.LCFI145:
 3159              		.cfi_def_cfa_offset 32
 3160 0004 0446     		mov	r4, r0
 3161 0006 0D46     		mov	r5, r1
 423:Core/u8g2/u8g2_d_setup.c ****   uint8_t tile_buf_height;
 424:Core/u8g2/u8g2_d_setup.c ****   uint8_t *buf;
 425:Core/u8g2/u8g2_d_setup.c ****   u8g2_SetupDisplay(u8g2, u8x8_d_sh1106_128x64_noname, u8x8_cad_ssd13xx_i2c, byte_cb, gpio_and_dela
 3162              		.loc 1 425 0
 3163 0008 0093     		str	r3, [sp]
 3164 000a 1346     		mov	r3, r2
 3165              	.LVL433:
 3166 000c 084A     		ldr	r2, .L195
 3167              	.LVL434:
 3168 000e 0949     		ldr	r1, .L195+4
 3169              	.LVL435:
 3170 0010 FFF7FEFF 		bl	u8x8_Setup
 3171              	.LVL436:
 426:Core/u8g2/u8g2_d_setup.c ****   buf = u8g2_m_16_8_2(&tile_buf_height);
 3172              		.loc 1 426 0
 3173 0014 0DF10F00 		add	r0, sp, #15
 3174 0018 FFF7FEFF 		bl	u8g2_m_16_8_2
 3175              	.LVL437:
 427:Core/u8g2/u8g2_d_setup.c ****   u8g2_SetupBuffer(u8g2, buf, tile_buf_height, u8g2_ll_hvline_vertical_top_lsb, rotation);
 3176              		.loc 1 427 0
 3177 001c 9DF80F20 		ldrb	r2, [sp, #15]	@ zero_extendqisi2
 3178 0020 0095     		str	r5, [sp]
 3179 0022 054B     		ldr	r3, .L195+8
 3180 0024 0146     		mov	r1, r0
 3181 0026 2046     		mov	r0, r4
 3182              	.LVL438:
 3183 0028 FFF7FEFF 		bl	u8g2_SetupBuffer
 3184              	.LVL439:
 428:Core/u8g2/u8g2_d_setup.c **** }
 3185              		.loc 1 428 0
 3186 002c 05B0     		add	sp, sp, #20
 3187              	.LCFI146:
 3188              		.cfi_def_cfa_offset 12
 3189              		@ sp needed
 3190 002e 30BD     		pop	{r4, r5, pc}
 3191              	.LVL440:
 3192              	.L196:
 3193              		.align	2
 3194              	.L195:
 3195 0030 00000000 		.word	u8x8_cad_ssd13xx_i2c
 3196 0034 00000000 		.word	u8x8_d_sh1106_128x64_noname
 3197 0038 00000000 		.word	u8g2_ll_hvline_vertical_top_lsb
 3198              		.cfi_endproc
 3199              	.LFE48:
 3201              		.section	.text.u8g2_Setup_sh1106_i2c_128x64_vcomh0_2,"ax",%progbits
 3202              		.align	1
 3203              		.global	u8g2_Setup_sh1106_i2c_128x64_vcomh0_2
 3204              		.syntax unified
ARM GAS  C:\Users\ASUS\AppData\Local\Temp\ccLOtXM9.s 			page 63


 3205              		.thumb
 3206              		.thumb_func
 3207              		.fpu softvfp
 3209              	u8g2_Setup_sh1106_i2c_128x64_vcomh0_2:
 3210              	.LFB49:
 429:Core/u8g2/u8g2_d_setup.c **** void u8g2_Setup_sh1106_i2c_128x64_vcomh0_2(u8g2_t *u8g2, const u8g2_cb_t *rotation, u8x8_msg_cb byt
 430:Core/u8g2/u8g2_d_setup.c **** {
 3211              		.loc 1 430 0
 3212              		.cfi_startproc
 3213              		@ args = 0, pretend = 0, frame = 8
 3214              		@ frame_needed = 0, uses_anonymous_args = 0
 3215              	.LVL441:
 3216 0000 30B5     		push	{r4, r5, lr}
 3217              	.LCFI147:
 3218              		.cfi_def_cfa_offset 12
 3219              		.cfi_offset 4, -12
 3220              		.cfi_offset 5, -8
 3221              		.cfi_offset 14, -4
 3222 0002 85B0     		sub	sp, sp, #20
 3223              	.LCFI148:
 3224              		.cfi_def_cfa_offset 32
 3225 0004 0446     		mov	r4, r0
 3226 0006 0D46     		mov	r5, r1
 431:Core/u8g2/u8g2_d_setup.c ****   uint8_t tile_buf_height;
 432:Core/u8g2/u8g2_d_setup.c ****   uint8_t *buf;
 433:Core/u8g2/u8g2_d_setup.c ****   u8g2_SetupDisplay(u8g2, u8x8_d_sh1106_128x64_vcomh0, u8x8_cad_ssd13xx_i2c, byte_cb, gpio_and_dela
 3227              		.loc 1 433 0
 3228 0008 0093     		str	r3, [sp]
 3229 000a 1346     		mov	r3, r2
 3230              	.LVL442:
 3231 000c 084A     		ldr	r2, .L199
 3232              	.LVL443:
 3233 000e 0949     		ldr	r1, .L199+4
 3234              	.LVL444:
 3235 0010 FFF7FEFF 		bl	u8x8_Setup
 3236              	.LVL445:
 434:Core/u8g2/u8g2_d_setup.c ****   buf = u8g2_m_16_8_2(&tile_buf_height);
 3237              		.loc 1 434 0
 3238 0014 0DF10F00 		add	r0, sp, #15
 3239 0018 FFF7FEFF 		bl	u8g2_m_16_8_2
 3240              	.LVL446:
 435:Core/u8g2/u8g2_d_setup.c ****   u8g2_SetupBuffer(u8g2, buf, tile_buf_height, u8g2_ll_hvline_vertical_top_lsb, rotation);
 3241              		.loc 1 435 0
 3242 001c 9DF80F20 		ldrb	r2, [sp, #15]	@ zero_extendqisi2
 3243 0020 0095     		str	r5, [sp]
 3244 0022 054B     		ldr	r3, .L199+8
 3245 0024 0146     		mov	r1, r0
 3246 0026 2046     		mov	r0, r4
 3247              	.LVL447:
 3248 0028 FFF7FEFF 		bl	u8g2_SetupBuffer
 3249              	.LVL448:
 436:Core/u8g2/u8g2_d_setup.c **** }
 3250              		.loc 1 436 0
 3251 002c 05B0     		add	sp, sp, #20
 3252              	.LCFI149:
 3253              		.cfi_def_cfa_offset 12
 3254              		@ sp needed
ARM GAS  C:\Users\ASUS\AppData\Local\Temp\ccLOtXM9.s 			page 64


 3255 002e 30BD     		pop	{r4, r5, pc}
 3256              	.LVL449:
 3257              	.L200:
 3258              		.align	2
 3259              	.L199:
 3260 0030 00000000 		.word	u8x8_cad_ssd13xx_i2c
 3261 0034 00000000 		.word	u8x8_d_sh1106_128x64_vcomh0
 3262 0038 00000000 		.word	u8g2_ll_hvline_vertical_top_lsb
 3263              		.cfi_endproc
 3264              	.LFE49:
 3266              		.section	.text.u8g2_Setup_sh1106_i2c_128x64_winstar_2,"ax",%progbits
 3267              		.align	1
 3268              		.global	u8g2_Setup_sh1106_i2c_128x64_winstar_2
 3269              		.syntax unified
 3270              		.thumb
 3271              		.thumb_func
 3272              		.fpu softvfp
 3274              	u8g2_Setup_sh1106_i2c_128x64_winstar_2:
 3275              	.LFB50:
 437:Core/u8g2/u8g2_d_setup.c **** void u8g2_Setup_sh1106_i2c_128x64_winstar_2(u8g2_t *u8g2, const u8g2_cb_t *rotation, u8x8_msg_cb by
 438:Core/u8g2/u8g2_d_setup.c **** {
 3276              		.loc 1 438 0
 3277              		.cfi_startproc
 3278              		@ args = 0, pretend = 0, frame = 8
 3279              		@ frame_needed = 0, uses_anonymous_args = 0
 3280              	.LVL450:
 3281 0000 30B5     		push	{r4, r5, lr}
 3282              	.LCFI150:
 3283              		.cfi_def_cfa_offset 12
 3284              		.cfi_offset 4, -12
 3285              		.cfi_offset 5, -8
 3286              		.cfi_offset 14, -4
 3287 0002 85B0     		sub	sp, sp, #20
 3288              	.LCFI151:
 3289              		.cfi_def_cfa_offset 32
 3290 0004 0446     		mov	r4, r0
 3291 0006 0D46     		mov	r5, r1
 439:Core/u8g2/u8g2_d_setup.c ****   uint8_t tile_buf_height;
 440:Core/u8g2/u8g2_d_setup.c ****   uint8_t *buf;
 441:Core/u8g2/u8g2_d_setup.c ****   u8g2_SetupDisplay(u8g2, u8x8_d_sh1106_128x64_winstar, u8x8_cad_ssd13xx_i2c, byte_cb, gpio_and_del
 3292              		.loc 1 441 0
 3293 0008 0093     		str	r3, [sp]
 3294 000a 1346     		mov	r3, r2
 3295              	.LVL451:
 3296 000c 084A     		ldr	r2, .L203
 3297              	.LVL452:
 3298 000e 0949     		ldr	r1, .L203+4
 3299              	.LVL453:
 3300 0010 FFF7FEFF 		bl	u8x8_Setup
 3301              	.LVL454:
 442:Core/u8g2/u8g2_d_setup.c ****   buf = u8g2_m_16_8_2(&tile_buf_height);
 3302              		.loc 1 442 0
 3303 0014 0DF10F00 		add	r0, sp, #15
 3304 0018 FFF7FEFF 		bl	u8g2_m_16_8_2
 3305              	.LVL455:
 443:Core/u8g2/u8g2_d_setup.c ****   u8g2_SetupBuffer(u8g2, buf, tile_buf_height, u8g2_ll_hvline_vertical_top_lsb, rotation);
 3306              		.loc 1 443 0
ARM GAS  C:\Users\ASUS\AppData\Local\Temp\ccLOtXM9.s 			page 65


 3307 001c 9DF80F20 		ldrb	r2, [sp, #15]	@ zero_extendqisi2
 3308 0020 0095     		str	r5, [sp]
 3309 0022 054B     		ldr	r3, .L203+8
 3310 0024 0146     		mov	r1, r0
 3311 0026 2046     		mov	r0, r4
 3312              	.LVL456:
 3313 0028 FFF7FEFF 		bl	u8g2_SetupBuffer
 3314              	.LVL457:
 444:Core/u8g2/u8g2_d_setup.c **** }
 3315              		.loc 1 444 0
 3316 002c 05B0     		add	sp, sp, #20
 3317              	.LCFI152:
 3318              		.cfi_def_cfa_offset 12
 3319              		@ sp needed
 3320 002e 30BD     		pop	{r4, r5, pc}
 3321              	.LVL458:
 3322              	.L204:
 3323              		.align	2
 3324              	.L203:
 3325 0030 00000000 		.word	u8x8_cad_ssd13xx_i2c
 3326 0034 00000000 		.word	u8x8_d_sh1106_128x64_winstar
 3327 0038 00000000 		.word	u8g2_ll_hvline_vertical_top_lsb
 3328              		.cfi_endproc
 3329              	.LFE50:
 3331              		.section	.text.u8g2_Setup_sh1106_i2c_128x64_noname_f,"ax",%progbits
 3332              		.align	1
 3333              		.global	u8g2_Setup_sh1106_i2c_128x64_noname_f
 3334              		.syntax unified
 3335              		.thumb
 3336              		.thumb_func
 3337              		.fpu softvfp
 3339              	u8g2_Setup_sh1106_i2c_128x64_noname_f:
 3340              	.LFB51:
 445:Core/u8g2/u8g2_d_setup.c **** /* sh1106 f */
 446:Core/u8g2/u8g2_d_setup.c **** void u8g2_Setup_sh1106_i2c_128x64_noname_f(u8g2_t *u8g2, const u8g2_cb_t *rotation, u8x8_msg_cb byt
 447:Core/u8g2/u8g2_d_setup.c **** {
 3341              		.loc 1 447 0
 3342              		.cfi_startproc
 3343              		@ args = 0, pretend = 0, frame = 8
 3344              		@ frame_needed = 0, uses_anonymous_args = 0
 3345              	.LVL459:
 3346 0000 30B5     		push	{r4, r5, lr}
 3347              	.LCFI153:
 3348              		.cfi_def_cfa_offset 12
 3349              		.cfi_offset 4, -12
 3350              		.cfi_offset 5, -8
 3351              		.cfi_offset 14, -4
 3352 0002 85B0     		sub	sp, sp, #20
 3353              	.LCFI154:
 3354              		.cfi_def_cfa_offset 32
 3355 0004 0446     		mov	r4, r0
 3356 0006 0D46     		mov	r5, r1
 448:Core/u8g2/u8g2_d_setup.c ****   uint8_t tile_buf_height;
 449:Core/u8g2/u8g2_d_setup.c ****   uint8_t *buf;
 450:Core/u8g2/u8g2_d_setup.c ****   u8g2_SetupDisplay(u8g2, u8x8_d_sh1106_128x64_noname, u8x8_cad_ssd13xx_i2c, byte_cb, gpio_and_dela
 3357              		.loc 1 450 0
 3358 0008 0093     		str	r3, [sp]
ARM GAS  C:\Users\ASUS\AppData\Local\Temp\ccLOtXM9.s 			page 66


 3359 000a 1346     		mov	r3, r2
 3360              	.LVL460:
 3361 000c 084A     		ldr	r2, .L207
 3362              	.LVL461:
 3363 000e 0949     		ldr	r1, .L207+4
 3364              	.LVL462:
 3365 0010 FFF7FEFF 		bl	u8x8_Setup
 3366              	.LVL463:
 451:Core/u8g2/u8g2_d_setup.c ****   buf = u8g2_m_16_8_f(&tile_buf_height);
 3367              		.loc 1 451 0
 3368 0014 0DF10F00 		add	r0, sp, #15
 3369 0018 FFF7FEFF 		bl	u8g2_m_16_8_f
 3370              	.LVL464:
 452:Core/u8g2/u8g2_d_setup.c ****   u8g2_SetupBuffer(u8g2, buf, tile_buf_height, u8g2_ll_hvline_vertical_top_lsb, rotation);
 3371              		.loc 1 452 0
 3372 001c 9DF80F20 		ldrb	r2, [sp, #15]	@ zero_extendqisi2
 3373 0020 0095     		str	r5, [sp]
 3374 0022 054B     		ldr	r3, .L207+8
 3375 0024 0146     		mov	r1, r0
 3376 0026 2046     		mov	r0, r4
 3377              	.LVL465:
 3378 0028 FFF7FEFF 		bl	u8g2_SetupBuffer
 3379              	.LVL466:
 453:Core/u8g2/u8g2_d_setup.c **** }
 3380              		.loc 1 453 0
 3381 002c 05B0     		add	sp, sp, #20
 3382              	.LCFI155:
 3383              		.cfi_def_cfa_offset 12
 3384              		@ sp needed
 3385 002e 30BD     		pop	{r4, r5, pc}
 3386              	.LVL467:
 3387              	.L208:
 3388              		.align	2
 3389              	.L207:
 3390 0030 00000000 		.word	u8x8_cad_ssd13xx_i2c
 3391 0034 00000000 		.word	u8x8_d_sh1106_128x64_noname
 3392 0038 00000000 		.word	u8g2_ll_hvline_vertical_top_lsb
 3393              		.cfi_endproc
 3394              	.LFE51:
 3396              		.section	.text.u8g2_Setup_sh1106_i2c_128x64_vcomh0_f,"ax",%progbits
 3397              		.align	1
 3398              		.global	u8g2_Setup_sh1106_i2c_128x64_vcomh0_f
 3399              		.syntax unified
 3400              		.thumb
 3401              		.thumb_func
 3402              		.fpu softvfp
 3404              	u8g2_Setup_sh1106_i2c_128x64_vcomh0_f:
 3405              	.LFB52:
 454:Core/u8g2/u8g2_d_setup.c **** void u8g2_Setup_sh1106_i2c_128x64_vcomh0_f(u8g2_t *u8g2, const u8g2_cb_t *rotation, u8x8_msg_cb byt
 455:Core/u8g2/u8g2_d_setup.c **** {
 3406              		.loc 1 455 0
 3407              		.cfi_startproc
 3408              		@ args = 0, pretend = 0, frame = 8
 3409              		@ frame_needed = 0, uses_anonymous_args = 0
 3410              	.LVL468:
 3411 0000 30B5     		push	{r4, r5, lr}
 3412              	.LCFI156:
ARM GAS  C:\Users\ASUS\AppData\Local\Temp\ccLOtXM9.s 			page 67


 3413              		.cfi_def_cfa_offset 12
 3414              		.cfi_offset 4, -12
 3415              		.cfi_offset 5, -8
 3416              		.cfi_offset 14, -4
 3417 0002 85B0     		sub	sp, sp, #20
 3418              	.LCFI157:
 3419              		.cfi_def_cfa_offset 32
 3420 0004 0446     		mov	r4, r0
 3421 0006 0D46     		mov	r5, r1
 456:Core/u8g2/u8g2_d_setup.c ****   uint8_t tile_buf_height;
 457:Core/u8g2/u8g2_d_setup.c ****   uint8_t *buf;
 458:Core/u8g2/u8g2_d_setup.c ****   u8g2_SetupDisplay(u8g2, u8x8_d_sh1106_128x64_vcomh0, u8x8_cad_ssd13xx_i2c, byte_cb, gpio_and_dela
 3422              		.loc 1 458 0
 3423 0008 0093     		str	r3, [sp]
 3424 000a 1346     		mov	r3, r2
 3425              	.LVL469:
 3426 000c 084A     		ldr	r2, .L211
 3427              	.LVL470:
 3428 000e 0949     		ldr	r1, .L211+4
 3429              	.LVL471:
 3430 0010 FFF7FEFF 		bl	u8x8_Setup
 3431              	.LVL472:
 459:Core/u8g2/u8g2_d_setup.c ****   buf = u8g2_m_16_8_f(&tile_buf_height);
 3432              		.loc 1 459 0
 3433 0014 0DF10F00 		add	r0, sp, #15
 3434 0018 FFF7FEFF 		bl	u8g2_m_16_8_f
 3435              	.LVL473:
 460:Core/u8g2/u8g2_d_setup.c ****   u8g2_SetupBuffer(u8g2, buf, tile_buf_height, u8g2_ll_hvline_vertical_top_lsb, rotation);
 3436              		.loc 1 460 0
 3437 001c 9DF80F20 		ldrb	r2, [sp, #15]	@ zero_extendqisi2
 3438 0020 0095     		str	r5, [sp]
 3439 0022 054B     		ldr	r3, .L211+8
 3440 0024 0146     		mov	r1, r0
 3441 0026 2046     		mov	r0, r4
 3442              	.LVL474:
 3443 0028 FFF7FEFF 		bl	u8g2_SetupBuffer
 3444              	.LVL475:
 461:Core/u8g2/u8g2_d_setup.c **** }
 3445              		.loc 1 461 0
 3446 002c 05B0     		add	sp, sp, #20
 3447              	.LCFI158:
 3448              		.cfi_def_cfa_offset 12
 3449              		@ sp needed
 3450 002e 30BD     		pop	{r4, r5, pc}
 3451              	.LVL476:
 3452              	.L212:
 3453              		.align	2
 3454              	.L211:
 3455 0030 00000000 		.word	u8x8_cad_ssd13xx_i2c
 3456 0034 00000000 		.word	u8x8_d_sh1106_128x64_vcomh0
 3457 0038 00000000 		.word	u8g2_ll_hvline_vertical_top_lsb
 3458              		.cfi_endproc
 3459              	.LFE52:
 3461              		.section	.text.u8g2_Setup_sh1106_i2c_128x64_winstar_f,"ax",%progbits
 3462              		.align	1
 3463              		.global	u8g2_Setup_sh1106_i2c_128x64_winstar_f
 3464              		.syntax unified
ARM GAS  C:\Users\ASUS\AppData\Local\Temp\ccLOtXM9.s 			page 68


 3465              		.thumb
 3466              		.thumb_func
 3467              		.fpu softvfp
 3469              	u8g2_Setup_sh1106_i2c_128x64_winstar_f:
 3470              	.LFB53:
 462:Core/u8g2/u8g2_d_setup.c **** void u8g2_Setup_sh1106_i2c_128x64_winstar_f(u8g2_t *u8g2, const u8g2_cb_t *rotation, u8x8_msg_cb by
 463:Core/u8g2/u8g2_d_setup.c **** {
 3471              		.loc 1 463 0
 3472              		.cfi_startproc
 3473              		@ args = 0, pretend = 0, frame = 8
 3474              		@ frame_needed = 0, uses_anonymous_args = 0
 3475              	.LVL477:
 3476 0000 30B5     		push	{r4, r5, lr}
 3477              	.LCFI159:
 3478              		.cfi_def_cfa_offset 12
 3479              		.cfi_offset 4, -12
 3480              		.cfi_offset 5, -8
 3481              		.cfi_offset 14, -4
 3482 0002 85B0     		sub	sp, sp, #20
 3483              	.LCFI160:
 3484              		.cfi_def_cfa_offset 32
 3485 0004 0446     		mov	r4, r0
 3486 0006 0D46     		mov	r5, r1
 464:Core/u8g2/u8g2_d_setup.c ****   uint8_t tile_buf_height;
 465:Core/u8g2/u8g2_d_setup.c ****   uint8_t *buf;
 466:Core/u8g2/u8g2_d_setup.c ****   u8g2_SetupDisplay(u8g2, u8x8_d_sh1106_128x64_winstar, u8x8_cad_ssd13xx_i2c, byte_cb, gpio_and_del
 3487              		.loc 1 466 0
 3488 0008 0093     		str	r3, [sp]
 3489 000a 1346     		mov	r3, r2
 3490              	.LVL478:
 3491 000c 084A     		ldr	r2, .L215
 3492              	.LVL479:
 3493 000e 0949     		ldr	r1, .L215+4
 3494              	.LVL480:
 3495 0010 FFF7FEFF 		bl	u8x8_Setup
 3496              	.LVL481:
 467:Core/u8g2/u8g2_d_setup.c ****   buf = u8g2_m_16_8_f(&tile_buf_height);
 3497              		.loc 1 467 0
 3498 0014 0DF10F00 		add	r0, sp, #15
 3499 0018 FFF7FEFF 		bl	u8g2_m_16_8_f
 3500              	.LVL482:
 468:Core/u8g2/u8g2_d_setup.c ****   u8g2_SetupBuffer(u8g2, buf, tile_buf_height, u8g2_ll_hvline_vertical_top_lsb, rotation);
 3501              		.loc 1 468 0
 3502 001c 9DF80F20 		ldrb	r2, [sp, #15]	@ zero_extendqisi2
 3503 0020 0095     		str	r5, [sp]
 3504 0022 054B     		ldr	r3, .L215+8
 3505 0024 0146     		mov	r1, r0
 3506 0026 2046     		mov	r0, r4
 3507              	.LVL483:
 3508 0028 FFF7FEFF 		bl	u8g2_SetupBuffer
 3509              	.LVL484:
 469:Core/u8g2/u8g2_d_setup.c **** }
 3510              		.loc 1 469 0
 3511 002c 05B0     		add	sp, sp, #20
 3512              	.LCFI161:
 3513              		.cfi_def_cfa_offset 12
 3514              		@ sp needed
ARM GAS  C:\Users\ASUS\AppData\Local\Temp\ccLOtXM9.s 			page 69


 3515 002e 30BD     		pop	{r4, r5, pc}
 3516              	.LVL485:
 3517              	.L216:
 3518              		.align	2
 3519              	.L215:
 3520 0030 00000000 		.word	u8x8_cad_ssd13xx_i2c
 3521 0034 00000000 		.word	u8x8_d_sh1106_128x64_winstar
 3522 0038 00000000 		.word	u8g2_ll_hvline_vertical_top_lsb
 3523              		.cfi_endproc
 3524              	.LFE53:
 3526              		.section	.text.u8g2_Setup_sh1106_72x40_wise_1,"ax",%progbits
 3527              		.align	1
 3528              		.global	u8g2_Setup_sh1106_72x40_wise_1
 3529              		.syntax unified
 3530              		.thumb
 3531              		.thumb_func
 3532              		.fpu softvfp
 3534              	u8g2_Setup_sh1106_72x40_wise_1:
 3535              	.LFB54:
 470:Core/u8g2/u8g2_d_setup.c **** /* sh1106 */
 471:Core/u8g2/u8g2_d_setup.c **** /* sh1106 1 */
 472:Core/u8g2/u8g2_d_setup.c **** void u8g2_Setup_sh1106_72x40_wise_1(u8g2_t *u8g2, const u8g2_cb_t *rotation, u8x8_msg_cb byte_cb, u
 473:Core/u8g2/u8g2_d_setup.c **** {
 3536              		.loc 1 473 0
 3537              		.cfi_startproc
 3538              		@ args = 0, pretend = 0, frame = 8
 3539              		@ frame_needed = 0, uses_anonymous_args = 0
 3540              	.LVL486:
 3541 0000 30B5     		push	{r4, r5, lr}
 3542              	.LCFI162:
 3543              		.cfi_def_cfa_offset 12
 3544              		.cfi_offset 4, -12
 3545              		.cfi_offset 5, -8
 3546              		.cfi_offset 14, -4
 3547 0002 85B0     		sub	sp, sp, #20
 3548              	.LCFI163:
 3549              		.cfi_def_cfa_offset 32
 3550 0004 0446     		mov	r4, r0
 3551 0006 0D46     		mov	r5, r1
 474:Core/u8g2/u8g2_d_setup.c ****   uint8_t tile_buf_height;
 475:Core/u8g2/u8g2_d_setup.c ****   uint8_t *buf;
 476:Core/u8g2/u8g2_d_setup.c ****   u8g2_SetupDisplay(u8g2, u8x8_d_sh1106_72x40_wise, u8x8_cad_001, byte_cb, gpio_and_delay_cb);
 3552              		.loc 1 476 0
 3553 0008 0093     		str	r3, [sp]
 3554 000a 1346     		mov	r3, r2
 3555              	.LVL487:
 3556 000c 084A     		ldr	r2, .L219
 3557              	.LVL488:
 3558 000e 0949     		ldr	r1, .L219+4
 3559              	.LVL489:
 3560 0010 FFF7FEFF 		bl	u8x8_Setup
 3561              	.LVL490:
 477:Core/u8g2/u8g2_d_setup.c ****   buf = u8g2_m_9_5_1(&tile_buf_height);
 3562              		.loc 1 477 0
 3563 0014 0DF10F00 		add	r0, sp, #15
 3564 0018 FFF7FEFF 		bl	u8g2_m_9_5_1
 3565              	.LVL491:
ARM GAS  C:\Users\ASUS\AppData\Local\Temp\ccLOtXM9.s 			page 70


 478:Core/u8g2/u8g2_d_setup.c ****   u8g2_SetupBuffer(u8g2, buf, tile_buf_height, u8g2_ll_hvline_vertical_top_lsb, rotation);
 3566              		.loc 1 478 0
 3567 001c 9DF80F20 		ldrb	r2, [sp, #15]	@ zero_extendqisi2
 3568 0020 0095     		str	r5, [sp]
 3569 0022 054B     		ldr	r3, .L219+8
 3570 0024 0146     		mov	r1, r0
 3571 0026 2046     		mov	r0, r4
 3572              	.LVL492:
 3573 0028 FFF7FEFF 		bl	u8g2_SetupBuffer
 3574              	.LVL493:
 479:Core/u8g2/u8g2_d_setup.c **** }
 3575              		.loc 1 479 0
 3576 002c 05B0     		add	sp, sp, #20
 3577              	.LCFI164:
 3578              		.cfi_def_cfa_offset 12
 3579              		@ sp needed
 3580 002e 30BD     		pop	{r4, r5, pc}
 3581              	.LVL494:
 3582              	.L220:
 3583              		.align	2
 3584              	.L219:
 3585 0030 00000000 		.word	u8x8_cad_001
 3586 0034 00000000 		.word	u8x8_d_sh1106_72x40_wise
 3587 0038 00000000 		.word	u8g2_ll_hvline_vertical_top_lsb
 3588              		.cfi_endproc
 3589              	.LFE54:
 3591              		.section	.text.u8g2_Setup_sh1106_72x40_wise_2,"ax",%progbits
 3592              		.align	1
 3593              		.global	u8g2_Setup_sh1106_72x40_wise_2
 3594              		.syntax unified
 3595              		.thumb
 3596              		.thumb_func
 3597              		.fpu softvfp
 3599              	u8g2_Setup_sh1106_72x40_wise_2:
 3600              	.LFB55:
 480:Core/u8g2/u8g2_d_setup.c **** /* sh1106 2 */
 481:Core/u8g2/u8g2_d_setup.c **** void u8g2_Setup_sh1106_72x40_wise_2(u8g2_t *u8g2, const u8g2_cb_t *rotation, u8x8_msg_cb byte_cb, u
 482:Core/u8g2/u8g2_d_setup.c **** {
 3601              		.loc 1 482 0
 3602              		.cfi_startproc
 3603              		@ args = 0, pretend = 0, frame = 8
 3604              		@ frame_needed = 0, uses_anonymous_args = 0
 3605              	.LVL495:
 3606 0000 30B5     		push	{r4, r5, lr}
 3607              	.LCFI165:
 3608              		.cfi_def_cfa_offset 12
 3609              		.cfi_offset 4, -12
 3610              		.cfi_offset 5, -8
 3611              		.cfi_offset 14, -4
 3612 0002 85B0     		sub	sp, sp, #20
 3613              	.LCFI166:
 3614              		.cfi_def_cfa_offset 32
 3615 0004 0446     		mov	r4, r0
 3616 0006 0D46     		mov	r5, r1
 483:Core/u8g2/u8g2_d_setup.c ****   uint8_t tile_buf_height;
 484:Core/u8g2/u8g2_d_setup.c ****   uint8_t *buf;
 485:Core/u8g2/u8g2_d_setup.c ****   u8g2_SetupDisplay(u8g2, u8x8_d_sh1106_72x40_wise, u8x8_cad_001, byte_cb, gpio_and_delay_cb);
ARM GAS  C:\Users\ASUS\AppData\Local\Temp\ccLOtXM9.s 			page 71


 3617              		.loc 1 485 0
 3618 0008 0093     		str	r3, [sp]
 3619 000a 1346     		mov	r3, r2
 3620              	.LVL496:
 3621 000c 084A     		ldr	r2, .L223
 3622              	.LVL497:
 3623 000e 0949     		ldr	r1, .L223+4
 3624              	.LVL498:
 3625 0010 FFF7FEFF 		bl	u8x8_Setup
 3626              	.LVL499:
 486:Core/u8g2/u8g2_d_setup.c ****   buf = u8g2_m_9_5_2(&tile_buf_height);
 3627              		.loc 1 486 0
 3628 0014 0DF10F00 		add	r0, sp, #15
 3629 0018 FFF7FEFF 		bl	u8g2_m_9_5_2
 3630              	.LVL500:
 487:Core/u8g2/u8g2_d_setup.c ****   u8g2_SetupBuffer(u8g2, buf, tile_buf_height, u8g2_ll_hvline_vertical_top_lsb, rotation);
 3631              		.loc 1 487 0
 3632 001c 9DF80F20 		ldrb	r2, [sp, #15]	@ zero_extendqisi2
 3633 0020 0095     		str	r5, [sp]
 3634 0022 054B     		ldr	r3, .L223+8
 3635 0024 0146     		mov	r1, r0
 3636 0026 2046     		mov	r0, r4
 3637              	.LVL501:
 3638 0028 FFF7FEFF 		bl	u8g2_SetupBuffer
 3639              	.LVL502:
 488:Core/u8g2/u8g2_d_setup.c **** }
 3640              		.loc 1 488 0
 3641 002c 05B0     		add	sp, sp, #20
 3642              	.LCFI167:
 3643              		.cfi_def_cfa_offset 12
 3644              		@ sp needed
 3645 002e 30BD     		pop	{r4, r5, pc}
 3646              	.LVL503:
 3647              	.L224:
 3648              		.align	2
 3649              	.L223:
 3650 0030 00000000 		.word	u8x8_cad_001
 3651 0034 00000000 		.word	u8x8_d_sh1106_72x40_wise
 3652 0038 00000000 		.word	u8g2_ll_hvline_vertical_top_lsb
 3653              		.cfi_endproc
 3654              	.LFE55:
 3656              		.section	.text.u8g2_Setup_sh1106_72x40_wise_f,"ax",%progbits
 3657              		.align	1
 3658              		.global	u8g2_Setup_sh1106_72x40_wise_f
 3659              		.syntax unified
 3660              		.thumb
 3661              		.thumb_func
 3662              		.fpu softvfp
 3664              	u8g2_Setup_sh1106_72x40_wise_f:
 3665              	.LFB56:
 489:Core/u8g2/u8g2_d_setup.c **** /* sh1106 f */
 490:Core/u8g2/u8g2_d_setup.c **** void u8g2_Setup_sh1106_72x40_wise_f(u8g2_t *u8g2, const u8g2_cb_t *rotation, u8x8_msg_cb byte_cb, u
 491:Core/u8g2/u8g2_d_setup.c **** {
 3666              		.loc 1 491 0
 3667              		.cfi_startproc
 3668              		@ args = 0, pretend = 0, frame = 8
 3669              		@ frame_needed = 0, uses_anonymous_args = 0
ARM GAS  C:\Users\ASUS\AppData\Local\Temp\ccLOtXM9.s 			page 72


 3670              	.LVL504:
 3671 0000 30B5     		push	{r4, r5, lr}
 3672              	.LCFI168:
 3673              		.cfi_def_cfa_offset 12
 3674              		.cfi_offset 4, -12
 3675              		.cfi_offset 5, -8
 3676              		.cfi_offset 14, -4
 3677 0002 85B0     		sub	sp, sp, #20
 3678              	.LCFI169:
 3679              		.cfi_def_cfa_offset 32
 3680 0004 0446     		mov	r4, r0
 3681 0006 0D46     		mov	r5, r1
 492:Core/u8g2/u8g2_d_setup.c ****   uint8_t tile_buf_height;
 493:Core/u8g2/u8g2_d_setup.c ****   uint8_t *buf;
 494:Core/u8g2/u8g2_d_setup.c ****   u8g2_SetupDisplay(u8g2, u8x8_d_sh1106_72x40_wise, u8x8_cad_001, byte_cb, gpio_and_delay_cb);
 3682              		.loc 1 494 0
 3683 0008 0093     		str	r3, [sp]
 3684 000a 1346     		mov	r3, r2
 3685              	.LVL505:
 3686 000c 084A     		ldr	r2, .L227
 3687              	.LVL506:
 3688 000e 0949     		ldr	r1, .L227+4
 3689              	.LVL507:
 3690 0010 FFF7FEFF 		bl	u8x8_Setup
 3691              	.LVL508:
 495:Core/u8g2/u8g2_d_setup.c ****   buf = u8g2_m_9_5_f(&tile_buf_height);
 3692              		.loc 1 495 0
 3693 0014 0DF10F00 		add	r0, sp, #15
 3694 0018 FFF7FEFF 		bl	u8g2_m_9_5_f
 3695              	.LVL509:
 496:Core/u8g2/u8g2_d_setup.c ****   u8g2_SetupBuffer(u8g2, buf, tile_buf_height, u8g2_ll_hvline_vertical_top_lsb, rotation);
 3696              		.loc 1 496 0
 3697 001c 9DF80F20 		ldrb	r2, [sp, #15]	@ zero_extendqisi2
 3698 0020 0095     		str	r5, [sp]
 3699 0022 054B     		ldr	r3, .L227+8
 3700 0024 0146     		mov	r1, r0
 3701 0026 2046     		mov	r0, r4
 3702              	.LVL510:
 3703 0028 FFF7FEFF 		bl	u8g2_SetupBuffer
 3704              	.LVL511:
 497:Core/u8g2/u8g2_d_setup.c **** }
 3705              		.loc 1 497 0
 3706 002c 05B0     		add	sp, sp, #20
 3707              	.LCFI170:
 3708              		.cfi_def_cfa_offset 12
 3709              		@ sp needed
 3710 002e 30BD     		pop	{r4, r5, pc}
 3711              	.LVL512:
 3712              	.L228:
 3713              		.align	2
 3714              	.L227:
 3715 0030 00000000 		.word	u8x8_cad_001
 3716 0034 00000000 		.word	u8x8_d_sh1106_72x40_wise
 3717 0038 00000000 		.word	u8g2_ll_hvline_vertical_top_lsb
 3718              		.cfi_endproc
 3719              	.LFE56:
 3721              		.section	.text.u8g2_Setup_sh1106_i2c_72x40_wise_1,"ax",%progbits
ARM GAS  C:\Users\ASUS\AppData\Local\Temp\ccLOtXM9.s 			page 73


 3722              		.align	1
 3723              		.global	u8g2_Setup_sh1106_i2c_72x40_wise_1
 3724              		.syntax unified
 3725              		.thumb
 3726              		.thumb_func
 3727              		.fpu softvfp
 3729              	u8g2_Setup_sh1106_i2c_72x40_wise_1:
 3730              	.LFB57:
 498:Core/u8g2/u8g2_d_setup.c **** /* sh1106 */
 499:Core/u8g2/u8g2_d_setup.c **** /* sh1106 1 */
 500:Core/u8g2/u8g2_d_setup.c **** void u8g2_Setup_sh1106_i2c_72x40_wise_1(u8g2_t *u8g2, const u8g2_cb_t *rotation, u8x8_msg_cb byte_c
 501:Core/u8g2/u8g2_d_setup.c **** {
 3731              		.loc 1 501 0
 3732              		.cfi_startproc
 3733              		@ args = 0, pretend = 0, frame = 8
 3734              		@ frame_needed = 0, uses_anonymous_args = 0
 3735              	.LVL513:
 3736 0000 30B5     		push	{r4, r5, lr}
 3737              	.LCFI171:
 3738              		.cfi_def_cfa_offset 12
 3739              		.cfi_offset 4, -12
 3740              		.cfi_offset 5, -8
 3741              		.cfi_offset 14, -4
 3742 0002 85B0     		sub	sp, sp, #20
 3743              	.LCFI172:
 3744              		.cfi_def_cfa_offset 32
 3745 0004 0446     		mov	r4, r0
 3746 0006 0D46     		mov	r5, r1
 502:Core/u8g2/u8g2_d_setup.c ****   uint8_t tile_buf_height;
 503:Core/u8g2/u8g2_d_setup.c ****   uint8_t *buf;
 504:Core/u8g2/u8g2_d_setup.c ****   u8g2_SetupDisplay(u8g2, u8x8_d_sh1106_72x40_wise, u8x8_cad_ssd13xx_i2c, byte_cb, gpio_and_delay_c
 3747              		.loc 1 504 0
 3748 0008 0093     		str	r3, [sp]
 3749 000a 1346     		mov	r3, r2
 3750              	.LVL514:
 3751 000c 084A     		ldr	r2, .L231
 3752              	.LVL515:
 3753 000e 0949     		ldr	r1, .L231+4
 3754              	.LVL516:
 3755 0010 FFF7FEFF 		bl	u8x8_Setup
 3756              	.LVL517:
 505:Core/u8g2/u8g2_d_setup.c ****   buf = u8g2_m_9_5_1(&tile_buf_height);
 3757              		.loc 1 505 0
 3758 0014 0DF10F00 		add	r0, sp, #15
 3759 0018 FFF7FEFF 		bl	u8g2_m_9_5_1
 3760              	.LVL518:
 506:Core/u8g2/u8g2_d_setup.c ****   u8g2_SetupBuffer(u8g2, buf, tile_buf_height, u8g2_ll_hvline_vertical_top_lsb, rotation);
 3761              		.loc 1 506 0
 3762 001c 9DF80F20 		ldrb	r2, [sp, #15]	@ zero_extendqisi2
 3763 0020 0095     		str	r5, [sp]
 3764 0022 054B     		ldr	r3, .L231+8
 3765 0024 0146     		mov	r1, r0
 3766 0026 2046     		mov	r0, r4
 3767              	.LVL519:
 3768 0028 FFF7FEFF 		bl	u8g2_SetupBuffer
 3769              	.LVL520:
 507:Core/u8g2/u8g2_d_setup.c **** }
ARM GAS  C:\Users\ASUS\AppData\Local\Temp\ccLOtXM9.s 			page 74


 3770              		.loc 1 507 0
 3771 002c 05B0     		add	sp, sp, #20
 3772              	.LCFI173:
 3773              		.cfi_def_cfa_offset 12
 3774              		@ sp needed
 3775 002e 30BD     		pop	{r4, r5, pc}
 3776              	.LVL521:
 3777              	.L232:
 3778              		.align	2
 3779              	.L231:
 3780 0030 00000000 		.word	u8x8_cad_ssd13xx_i2c
 3781 0034 00000000 		.word	u8x8_d_sh1106_72x40_wise
 3782 0038 00000000 		.word	u8g2_ll_hvline_vertical_top_lsb
 3783              		.cfi_endproc
 3784              	.LFE57:
 3786              		.section	.text.u8g2_Setup_sh1106_i2c_72x40_wise_2,"ax",%progbits
 3787              		.align	1
 3788              		.global	u8g2_Setup_sh1106_i2c_72x40_wise_2
 3789              		.syntax unified
 3790              		.thumb
 3791              		.thumb_func
 3792              		.fpu softvfp
 3794              	u8g2_Setup_sh1106_i2c_72x40_wise_2:
 3795              	.LFB58:
 508:Core/u8g2/u8g2_d_setup.c **** /* sh1106 2 */
 509:Core/u8g2/u8g2_d_setup.c **** void u8g2_Setup_sh1106_i2c_72x40_wise_2(u8g2_t *u8g2, const u8g2_cb_t *rotation, u8x8_msg_cb byte_c
 510:Core/u8g2/u8g2_d_setup.c **** {
 3796              		.loc 1 510 0
 3797              		.cfi_startproc
 3798              		@ args = 0, pretend = 0, frame = 8
 3799              		@ frame_needed = 0, uses_anonymous_args = 0
 3800              	.LVL522:
 3801 0000 30B5     		push	{r4, r5, lr}
 3802              	.LCFI174:
 3803              		.cfi_def_cfa_offset 12
 3804              		.cfi_offset 4, -12
 3805              		.cfi_offset 5, -8
 3806              		.cfi_offset 14, -4
 3807 0002 85B0     		sub	sp, sp, #20
 3808              	.LCFI175:
 3809              		.cfi_def_cfa_offset 32
 3810 0004 0446     		mov	r4, r0
 3811 0006 0D46     		mov	r5, r1
 511:Core/u8g2/u8g2_d_setup.c ****   uint8_t tile_buf_height;
 512:Core/u8g2/u8g2_d_setup.c ****   uint8_t *buf;
 513:Core/u8g2/u8g2_d_setup.c ****   u8g2_SetupDisplay(u8g2, u8x8_d_sh1106_72x40_wise, u8x8_cad_ssd13xx_i2c, byte_cb, gpio_and_delay_c
 3812              		.loc 1 513 0
 3813 0008 0093     		str	r3, [sp]
 3814 000a 1346     		mov	r3, r2
 3815              	.LVL523:
 3816 000c 084A     		ldr	r2, .L235
 3817              	.LVL524:
 3818 000e 0949     		ldr	r1, .L235+4
 3819              	.LVL525:
 3820 0010 FFF7FEFF 		bl	u8x8_Setup
 3821              	.LVL526:
 514:Core/u8g2/u8g2_d_setup.c ****   buf = u8g2_m_9_5_2(&tile_buf_height);
ARM GAS  C:\Users\ASUS\AppData\Local\Temp\ccLOtXM9.s 			page 75


 3822              		.loc 1 514 0
 3823 0014 0DF10F00 		add	r0, sp, #15
 3824 0018 FFF7FEFF 		bl	u8g2_m_9_5_2
 3825              	.LVL527:
 515:Core/u8g2/u8g2_d_setup.c ****   u8g2_SetupBuffer(u8g2, buf, tile_buf_height, u8g2_ll_hvline_vertical_top_lsb, rotation);
 3826              		.loc 1 515 0
 3827 001c 9DF80F20 		ldrb	r2, [sp, #15]	@ zero_extendqisi2
 3828 0020 0095     		str	r5, [sp]
 3829 0022 054B     		ldr	r3, .L235+8
 3830 0024 0146     		mov	r1, r0
 3831 0026 2046     		mov	r0, r4
 3832              	.LVL528:
 3833 0028 FFF7FEFF 		bl	u8g2_SetupBuffer
 3834              	.LVL529:
 516:Core/u8g2/u8g2_d_setup.c **** }
 3835              		.loc 1 516 0
 3836 002c 05B0     		add	sp, sp, #20
 3837              	.LCFI176:
 3838              		.cfi_def_cfa_offset 12
 3839              		@ sp needed
 3840 002e 30BD     		pop	{r4, r5, pc}
 3841              	.LVL530:
 3842              	.L236:
 3843              		.align	2
 3844              	.L235:
 3845 0030 00000000 		.word	u8x8_cad_ssd13xx_i2c
 3846 0034 00000000 		.word	u8x8_d_sh1106_72x40_wise
 3847 0038 00000000 		.word	u8g2_ll_hvline_vertical_top_lsb
 3848              		.cfi_endproc
 3849              	.LFE58:
 3851              		.section	.text.u8g2_Setup_sh1106_i2c_72x40_wise_f,"ax",%progbits
 3852              		.align	1
 3853              		.global	u8g2_Setup_sh1106_i2c_72x40_wise_f
 3854              		.syntax unified
 3855              		.thumb
 3856              		.thumb_func
 3857              		.fpu softvfp
 3859              	u8g2_Setup_sh1106_i2c_72x40_wise_f:
 3860              	.LFB59:
 517:Core/u8g2/u8g2_d_setup.c **** /* sh1106 f */
 518:Core/u8g2/u8g2_d_setup.c **** void u8g2_Setup_sh1106_i2c_72x40_wise_f(u8g2_t *u8g2, const u8g2_cb_t *rotation, u8x8_msg_cb byte_c
 519:Core/u8g2/u8g2_d_setup.c **** {
 3861              		.loc 1 519 0
 3862              		.cfi_startproc
 3863              		@ args = 0, pretend = 0, frame = 8
 3864              		@ frame_needed = 0, uses_anonymous_args = 0
 3865              	.LVL531:
 3866 0000 30B5     		push	{r4, r5, lr}
 3867              	.LCFI177:
 3868              		.cfi_def_cfa_offset 12
 3869              		.cfi_offset 4, -12
 3870              		.cfi_offset 5, -8
 3871              		.cfi_offset 14, -4
 3872 0002 85B0     		sub	sp, sp, #20
 3873              	.LCFI178:
 3874              		.cfi_def_cfa_offset 32
 3875 0004 0446     		mov	r4, r0
ARM GAS  C:\Users\ASUS\AppData\Local\Temp\ccLOtXM9.s 			page 76


 3876 0006 0D46     		mov	r5, r1
 520:Core/u8g2/u8g2_d_setup.c ****   uint8_t tile_buf_height;
 521:Core/u8g2/u8g2_d_setup.c ****   uint8_t *buf;
 522:Core/u8g2/u8g2_d_setup.c ****   u8g2_SetupDisplay(u8g2, u8x8_d_sh1106_72x40_wise, u8x8_cad_ssd13xx_i2c, byte_cb, gpio_and_delay_c
 3877              		.loc 1 522 0
 3878 0008 0093     		str	r3, [sp]
 3879 000a 1346     		mov	r3, r2
 3880              	.LVL532:
 3881 000c 084A     		ldr	r2, .L239
 3882              	.LVL533:
 3883 000e 0949     		ldr	r1, .L239+4
 3884              	.LVL534:
 3885 0010 FFF7FEFF 		bl	u8x8_Setup
 3886              	.LVL535:
 523:Core/u8g2/u8g2_d_setup.c ****   buf = u8g2_m_9_5_f(&tile_buf_height);
 3887              		.loc 1 523 0
 3888 0014 0DF10F00 		add	r0, sp, #15
 3889 0018 FFF7FEFF 		bl	u8g2_m_9_5_f
 3890              	.LVL536:
 524:Core/u8g2/u8g2_d_setup.c ****   u8g2_SetupBuffer(u8g2, buf, tile_buf_height, u8g2_ll_hvline_vertical_top_lsb, rotation);
 3891              		.loc 1 524 0
 3892 001c 9DF80F20 		ldrb	r2, [sp, #15]	@ zero_extendqisi2
 3893 0020 0095     		str	r5, [sp]
 3894 0022 054B     		ldr	r3, .L239+8
 3895 0024 0146     		mov	r1, r0
 3896 0026 2046     		mov	r0, r4
 3897              	.LVL537:
 3898 0028 FFF7FEFF 		bl	u8g2_SetupBuffer
 3899              	.LVL538:
 525:Core/u8g2/u8g2_d_setup.c **** }
 3900              		.loc 1 525 0
 3901 002c 05B0     		add	sp, sp, #20
 3902              	.LCFI179:
 3903              		.cfi_def_cfa_offset 12
 3904              		@ sp needed
 3905 002e 30BD     		pop	{r4, r5, pc}
 3906              	.LVL539:
 3907              	.L240:
 3908              		.align	2
 3909              	.L239:
 3910 0030 00000000 		.word	u8x8_cad_ssd13xx_i2c
 3911 0034 00000000 		.word	u8x8_d_sh1106_72x40_wise
 3912 0038 00000000 		.word	u8g2_ll_hvline_vertical_top_lsb
 3913              		.cfi_endproc
 3914              	.LFE59:
 3916              		.section	.text.u8g2_Setup_sh1106_64x32_1,"ax",%progbits
 3917              		.align	1
 3918              		.global	u8g2_Setup_sh1106_64x32_1
 3919              		.syntax unified
 3920              		.thumb
 3921              		.thumb_func
 3922              		.fpu softvfp
 3924              	u8g2_Setup_sh1106_64x32_1:
 3925              	.LFB60:
 526:Core/u8g2/u8g2_d_setup.c **** /* sh1106 */
 527:Core/u8g2/u8g2_d_setup.c **** /* sh1106 1 */
 528:Core/u8g2/u8g2_d_setup.c **** void u8g2_Setup_sh1106_64x32_1(u8g2_t *u8g2, const u8g2_cb_t *rotation, u8x8_msg_cb byte_cb, u8x8_m
ARM GAS  C:\Users\ASUS\AppData\Local\Temp\ccLOtXM9.s 			page 77


 529:Core/u8g2/u8g2_d_setup.c **** {
 3926              		.loc 1 529 0
 3927              		.cfi_startproc
 3928              		@ args = 0, pretend = 0, frame = 8
 3929              		@ frame_needed = 0, uses_anonymous_args = 0
 3930              	.LVL540:
 3931 0000 30B5     		push	{r4, r5, lr}
 3932              	.LCFI180:
 3933              		.cfi_def_cfa_offset 12
 3934              		.cfi_offset 4, -12
 3935              		.cfi_offset 5, -8
 3936              		.cfi_offset 14, -4
 3937 0002 85B0     		sub	sp, sp, #20
 3938              	.LCFI181:
 3939              		.cfi_def_cfa_offset 32
 3940 0004 0446     		mov	r4, r0
 3941 0006 0D46     		mov	r5, r1
 530:Core/u8g2/u8g2_d_setup.c ****   uint8_t tile_buf_height;
 531:Core/u8g2/u8g2_d_setup.c ****   uint8_t *buf;
 532:Core/u8g2/u8g2_d_setup.c ****   u8g2_SetupDisplay(u8g2, u8x8_d_sh1106_64x32, u8x8_cad_001, byte_cb, gpio_and_delay_cb);
 3942              		.loc 1 532 0
 3943 0008 0093     		str	r3, [sp]
 3944 000a 1346     		mov	r3, r2
 3945              	.LVL541:
 3946 000c 084A     		ldr	r2, .L243
 3947              	.LVL542:
 3948 000e 0949     		ldr	r1, .L243+4
 3949              	.LVL543:
 3950 0010 FFF7FEFF 		bl	u8x8_Setup
 3951              	.LVL544:
 533:Core/u8g2/u8g2_d_setup.c ****   buf = u8g2_m_8_4_1(&tile_buf_height);
 3952              		.loc 1 533 0
 3953 0014 0DF10F00 		add	r0, sp, #15
 3954 0018 FFF7FEFF 		bl	u8g2_m_8_4_1
 3955              	.LVL545:
 534:Core/u8g2/u8g2_d_setup.c ****   u8g2_SetupBuffer(u8g2, buf, tile_buf_height, u8g2_ll_hvline_vertical_top_lsb, rotation);
 3956              		.loc 1 534 0
 3957 001c 9DF80F20 		ldrb	r2, [sp, #15]	@ zero_extendqisi2
 3958 0020 0095     		str	r5, [sp]
 3959 0022 054B     		ldr	r3, .L243+8
 3960 0024 0146     		mov	r1, r0
 3961 0026 2046     		mov	r0, r4
 3962              	.LVL546:
 3963 0028 FFF7FEFF 		bl	u8g2_SetupBuffer
 3964              	.LVL547:
 535:Core/u8g2/u8g2_d_setup.c **** }
 3965              		.loc 1 535 0
 3966 002c 05B0     		add	sp, sp, #20
 3967              	.LCFI182:
 3968              		.cfi_def_cfa_offset 12
 3969              		@ sp needed
 3970 002e 30BD     		pop	{r4, r5, pc}
 3971              	.LVL548:
 3972              	.L244:
 3973              		.align	2
 3974              	.L243:
 3975 0030 00000000 		.word	u8x8_cad_001
ARM GAS  C:\Users\ASUS\AppData\Local\Temp\ccLOtXM9.s 			page 78


 3976 0034 00000000 		.word	u8x8_d_sh1106_64x32
 3977 0038 00000000 		.word	u8g2_ll_hvline_vertical_top_lsb
 3978              		.cfi_endproc
 3979              	.LFE60:
 3981              		.section	.text.u8g2_Setup_sh1106_64x32_2,"ax",%progbits
 3982              		.align	1
 3983              		.global	u8g2_Setup_sh1106_64x32_2
 3984              		.syntax unified
 3985              		.thumb
 3986              		.thumb_func
 3987              		.fpu softvfp
 3989              	u8g2_Setup_sh1106_64x32_2:
 3990              	.LFB61:
 536:Core/u8g2/u8g2_d_setup.c **** /* sh1106 2 */
 537:Core/u8g2/u8g2_d_setup.c **** void u8g2_Setup_sh1106_64x32_2(u8g2_t *u8g2, const u8g2_cb_t *rotation, u8x8_msg_cb byte_cb, u8x8_m
 538:Core/u8g2/u8g2_d_setup.c **** {
 3991              		.loc 1 538 0
 3992              		.cfi_startproc
 3993              		@ args = 0, pretend = 0, frame = 8
 3994              		@ frame_needed = 0, uses_anonymous_args = 0
 3995              	.LVL549:
 3996 0000 30B5     		push	{r4, r5, lr}
 3997              	.LCFI183:
 3998              		.cfi_def_cfa_offset 12
 3999              		.cfi_offset 4, -12
 4000              		.cfi_offset 5, -8
 4001              		.cfi_offset 14, -4
 4002 0002 85B0     		sub	sp, sp, #20
 4003              	.LCFI184:
 4004              		.cfi_def_cfa_offset 32
 4005 0004 0446     		mov	r4, r0
 4006 0006 0D46     		mov	r5, r1
 539:Core/u8g2/u8g2_d_setup.c ****   uint8_t tile_buf_height;
 540:Core/u8g2/u8g2_d_setup.c ****   uint8_t *buf;
 541:Core/u8g2/u8g2_d_setup.c ****   u8g2_SetupDisplay(u8g2, u8x8_d_sh1106_64x32, u8x8_cad_001, byte_cb, gpio_and_delay_cb);
 4007              		.loc 1 541 0
 4008 0008 0093     		str	r3, [sp]
 4009 000a 1346     		mov	r3, r2
 4010              	.LVL550:
 4011 000c 084A     		ldr	r2, .L247
 4012              	.LVL551:
 4013 000e 0949     		ldr	r1, .L247+4
 4014              	.LVL552:
 4015 0010 FFF7FEFF 		bl	u8x8_Setup
 4016              	.LVL553:
 542:Core/u8g2/u8g2_d_setup.c ****   buf = u8g2_m_8_4_2(&tile_buf_height);
 4017              		.loc 1 542 0
 4018 0014 0DF10F00 		add	r0, sp, #15
 4019 0018 FFF7FEFF 		bl	u8g2_m_8_4_2
 4020              	.LVL554:
 543:Core/u8g2/u8g2_d_setup.c ****   u8g2_SetupBuffer(u8g2, buf, tile_buf_height, u8g2_ll_hvline_vertical_top_lsb, rotation);
 4021              		.loc 1 543 0
 4022 001c 9DF80F20 		ldrb	r2, [sp, #15]	@ zero_extendqisi2
 4023 0020 0095     		str	r5, [sp]
 4024 0022 054B     		ldr	r3, .L247+8
 4025 0024 0146     		mov	r1, r0
 4026 0026 2046     		mov	r0, r4
ARM GAS  C:\Users\ASUS\AppData\Local\Temp\ccLOtXM9.s 			page 79


 4027              	.LVL555:
 4028 0028 FFF7FEFF 		bl	u8g2_SetupBuffer
 4029              	.LVL556:
 544:Core/u8g2/u8g2_d_setup.c **** }
 4030              		.loc 1 544 0
 4031 002c 05B0     		add	sp, sp, #20
 4032              	.LCFI185:
 4033              		.cfi_def_cfa_offset 12
 4034              		@ sp needed
 4035 002e 30BD     		pop	{r4, r5, pc}
 4036              	.LVL557:
 4037              	.L248:
 4038              		.align	2
 4039              	.L247:
 4040 0030 00000000 		.word	u8x8_cad_001
 4041 0034 00000000 		.word	u8x8_d_sh1106_64x32
 4042 0038 00000000 		.word	u8g2_ll_hvline_vertical_top_lsb
 4043              		.cfi_endproc
 4044              	.LFE61:
 4046              		.section	.text.u8g2_Setup_sh1106_64x32_f,"ax",%progbits
 4047              		.align	1
 4048              		.global	u8g2_Setup_sh1106_64x32_f
 4049              		.syntax unified
 4050              		.thumb
 4051              		.thumb_func
 4052              		.fpu softvfp
 4054              	u8g2_Setup_sh1106_64x32_f:
 4055              	.LFB62:
 545:Core/u8g2/u8g2_d_setup.c **** /* sh1106 f */
 546:Core/u8g2/u8g2_d_setup.c **** void u8g2_Setup_sh1106_64x32_f(u8g2_t *u8g2, const u8g2_cb_t *rotation, u8x8_msg_cb byte_cb, u8x8_m
 547:Core/u8g2/u8g2_d_setup.c **** {
 4056              		.loc 1 547 0
 4057              		.cfi_startproc
 4058              		@ args = 0, pretend = 0, frame = 8
 4059              		@ frame_needed = 0, uses_anonymous_args = 0
 4060              	.LVL558:
 4061 0000 30B5     		push	{r4, r5, lr}
 4062              	.LCFI186:
 4063              		.cfi_def_cfa_offset 12
 4064              		.cfi_offset 4, -12
 4065              		.cfi_offset 5, -8
 4066              		.cfi_offset 14, -4
 4067 0002 85B0     		sub	sp, sp, #20
 4068              	.LCFI187:
 4069              		.cfi_def_cfa_offset 32
 4070 0004 0446     		mov	r4, r0
 4071 0006 0D46     		mov	r5, r1
 548:Core/u8g2/u8g2_d_setup.c ****   uint8_t tile_buf_height;
 549:Core/u8g2/u8g2_d_setup.c ****   uint8_t *buf;
 550:Core/u8g2/u8g2_d_setup.c ****   u8g2_SetupDisplay(u8g2, u8x8_d_sh1106_64x32, u8x8_cad_001, byte_cb, gpio_and_delay_cb);
 4072              		.loc 1 550 0
 4073 0008 0093     		str	r3, [sp]
 4074 000a 1346     		mov	r3, r2
 4075              	.LVL559:
 4076 000c 084A     		ldr	r2, .L251
 4077              	.LVL560:
 4078 000e 0949     		ldr	r1, .L251+4
ARM GAS  C:\Users\ASUS\AppData\Local\Temp\ccLOtXM9.s 			page 80


 4079              	.LVL561:
 4080 0010 FFF7FEFF 		bl	u8x8_Setup
 4081              	.LVL562:
 551:Core/u8g2/u8g2_d_setup.c ****   buf = u8g2_m_8_4_f(&tile_buf_height);
 4082              		.loc 1 551 0
 4083 0014 0DF10F00 		add	r0, sp, #15
 4084 0018 FFF7FEFF 		bl	u8g2_m_8_4_f
 4085              	.LVL563:
 552:Core/u8g2/u8g2_d_setup.c ****   u8g2_SetupBuffer(u8g2, buf, tile_buf_height, u8g2_ll_hvline_vertical_top_lsb, rotation);
 4086              		.loc 1 552 0
 4087 001c 9DF80F20 		ldrb	r2, [sp, #15]	@ zero_extendqisi2
 4088 0020 0095     		str	r5, [sp]
 4089 0022 054B     		ldr	r3, .L251+8
 4090 0024 0146     		mov	r1, r0
 4091 0026 2046     		mov	r0, r4
 4092              	.LVL564:
 4093 0028 FFF7FEFF 		bl	u8g2_SetupBuffer
 4094              	.LVL565:
 553:Core/u8g2/u8g2_d_setup.c **** }
 4095              		.loc 1 553 0
 4096 002c 05B0     		add	sp, sp, #20
 4097              	.LCFI188:
 4098              		.cfi_def_cfa_offset 12
 4099              		@ sp needed
 4100 002e 30BD     		pop	{r4, r5, pc}
 4101              	.LVL566:
 4102              	.L252:
 4103              		.align	2
 4104              	.L251:
 4105 0030 00000000 		.word	u8x8_cad_001
 4106 0034 00000000 		.word	u8x8_d_sh1106_64x32
 4107 0038 00000000 		.word	u8g2_ll_hvline_vertical_top_lsb
 4108              		.cfi_endproc
 4109              	.LFE62:
 4111              		.section	.text.u8g2_Setup_sh1106_i2c_64x32_1,"ax",%progbits
 4112              		.align	1
 4113              		.global	u8g2_Setup_sh1106_i2c_64x32_1
 4114              		.syntax unified
 4115              		.thumb
 4116              		.thumb_func
 4117              		.fpu softvfp
 4119              	u8g2_Setup_sh1106_i2c_64x32_1:
 4120              	.LFB63:
 554:Core/u8g2/u8g2_d_setup.c **** /* sh1106 */
 555:Core/u8g2/u8g2_d_setup.c **** /* sh1106 1 */
 556:Core/u8g2/u8g2_d_setup.c **** void u8g2_Setup_sh1106_i2c_64x32_1(u8g2_t *u8g2, const u8g2_cb_t *rotation, u8x8_msg_cb byte_cb, u8
 557:Core/u8g2/u8g2_d_setup.c **** {
 4121              		.loc 1 557 0
 4122              		.cfi_startproc
 4123              		@ args = 0, pretend = 0, frame = 8
 4124              		@ frame_needed = 0, uses_anonymous_args = 0
 4125              	.LVL567:
 4126 0000 30B5     		push	{r4, r5, lr}
 4127              	.LCFI189:
 4128              		.cfi_def_cfa_offset 12
 4129              		.cfi_offset 4, -12
 4130              		.cfi_offset 5, -8
ARM GAS  C:\Users\ASUS\AppData\Local\Temp\ccLOtXM9.s 			page 81


 4131              		.cfi_offset 14, -4
 4132 0002 85B0     		sub	sp, sp, #20
 4133              	.LCFI190:
 4134              		.cfi_def_cfa_offset 32
 4135 0004 0446     		mov	r4, r0
 4136 0006 0D46     		mov	r5, r1
 558:Core/u8g2/u8g2_d_setup.c ****   uint8_t tile_buf_height;
 559:Core/u8g2/u8g2_d_setup.c ****   uint8_t *buf;
 560:Core/u8g2/u8g2_d_setup.c ****   u8g2_SetupDisplay(u8g2, u8x8_d_sh1106_64x32, u8x8_cad_ssd13xx_i2c, byte_cb, gpio_and_delay_cb);
 4137              		.loc 1 560 0
 4138 0008 0093     		str	r3, [sp]
 4139 000a 1346     		mov	r3, r2
 4140              	.LVL568:
 4141 000c 084A     		ldr	r2, .L255
 4142              	.LVL569:
 4143 000e 0949     		ldr	r1, .L255+4
 4144              	.LVL570:
 4145 0010 FFF7FEFF 		bl	u8x8_Setup
 4146              	.LVL571:
 561:Core/u8g2/u8g2_d_setup.c ****   buf = u8g2_m_8_4_1(&tile_buf_height);
 4147              		.loc 1 561 0
 4148 0014 0DF10F00 		add	r0, sp, #15
 4149 0018 FFF7FEFF 		bl	u8g2_m_8_4_1
 4150              	.LVL572:
 562:Core/u8g2/u8g2_d_setup.c ****   u8g2_SetupBuffer(u8g2, buf, tile_buf_height, u8g2_ll_hvline_vertical_top_lsb, rotation);
 4151              		.loc 1 562 0
 4152 001c 9DF80F20 		ldrb	r2, [sp, #15]	@ zero_extendqisi2
 4153 0020 0095     		str	r5, [sp]
 4154 0022 054B     		ldr	r3, .L255+8
 4155 0024 0146     		mov	r1, r0
 4156 0026 2046     		mov	r0, r4
 4157              	.LVL573:
 4158 0028 FFF7FEFF 		bl	u8g2_SetupBuffer
 4159              	.LVL574:
 563:Core/u8g2/u8g2_d_setup.c **** }
 4160              		.loc 1 563 0
 4161 002c 05B0     		add	sp, sp, #20
 4162              	.LCFI191:
 4163              		.cfi_def_cfa_offset 12
 4164              		@ sp needed
 4165 002e 30BD     		pop	{r4, r5, pc}
 4166              	.LVL575:
 4167              	.L256:
 4168              		.align	2
 4169              	.L255:
 4170 0030 00000000 		.word	u8x8_cad_ssd13xx_i2c
 4171 0034 00000000 		.word	u8x8_d_sh1106_64x32
 4172 0038 00000000 		.word	u8g2_ll_hvline_vertical_top_lsb
 4173              		.cfi_endproc
 4174              	.LFE63:
 4176              		.section	.text.u8g2_Setup_sh1106_i2c_64x32_2,"ax",%progbits
 4177              		.align	1
 4178              		.global	u8g2_Setup_sh1106_i2c_64x32_2
 4179              		.syntax unified
 4180              		.thumb
 4181              		.thumb_func
 4182              		.fpu softvfp
ARM GAS  C:\Users\ASUS\AppData\Local\Temp\ccLOtXM9.s 			page 82


 4184              	u8g2_Setup_sh1106_i2c_64x32_2:
 4185              	.LFB64:
 564:Core/u8g2/u8g2_d_setup.c **** /* sh1106 2 */
 565:Core/u8g2/u8g2_d_setup.c **** void u8g2_Setup_sh1106_i2c_64x32_2(u8g2_t *u8g2, const u8g2_cb_t *rotation, u8x8_msg_cb byte_cb, u8
 566:Core/u8g2/u8g2_d_setup.c **** {
 4186              		.loc 1 566 0
 4187              		.cfi_startproc
 4188              		@ args = 0, pretend = 0, frame = 8
 4189              		@ frame_needed = 0, uses_anonymous_args = 0
 4190              	.LVL576:
 4191 0000 30B5     		push	{r4, r5, lr}
 4192              	.LCFI192:
 4193              		.cfi_def_cfa_offset 12
 4194              		.cfi_offset 4, -12
 4195              		.cfi_offset 5, -8
 4196              		.cfi_offset 14, -4
 4197 0002 85B0     		sub	sp, sp, #20
 4198              	.LCFI193:
 4199              		.cfi_def_cfa_offset 32
 4200 0004 0446     		mov	r4, r0
 4201 0006 0D46     		mov	r5, r1
 567:Core/u8g2/u8g2_d_setup.c ****   uint8_t tile_buf_height;
 568:Core/u8g2/u8g2_d_setup.c ****   uint8_t *buf;
 569:Core/u8g2/u8g2_d_setup.c ****   u8g2_SetupDisplay(u8g2, u8x8_d_sh1106_64x32, u8x8_cad_ssd13xx_i2c, byte_cb, gpio_and_delay_cb);
 4202              		.loc 1 569 0
 4203 0008 0093     		str	r3, [sp]
 4204 000a 1346     		mov	r3, r2
 4205              	.LVL577:
 4206 000c 084A     		ldr	r2, .L259
 4207              	.LVL578:
 4208 000e 0949     		ldr	r1, .L259+4
 4209              	.LVL579:
 4210 0010 FFF7FEFF 		bl	u8x8_Setup
 4211              	.LVL580:
 570:Core/u8g2/u8g2_d_setup.c ****   buf = u8g2_m_8_4_2(&tile_buf_height);
 4212              		.loc 1 570 0
 4213 0014 0DF10F00 		add	r0, sp, #15
 4214 0018 FFF7FEFF 		bl	u8g2_m_8_4_2
 4215              	.LVL581:
 571:Core/u8g2/u8g2_d_setup.c ****   u8g2_SetupBuffer(u8g2, buf, tile_buf_height, u8g2_ll_hvline_vertical_top_lsb, rotation);
 4216              		.loc 1 571 0
 4217 001c 9DF80F20 		ldrb	r2, [sp, #15]	@ zero_extendqisi2
 4218 0020 0095     		str	r5, [sp]
 4219 0022 054B     		ldr	r3, .L259+8
 4220 0024 0146     		mov	r1, r0
 4221 0026 2046     		mov	r0, r4
 4222              	.LVL582:
 4223 0028 FFF7FEFF 		bl	u8g2_SetupBuffer
 4224              	.LVL583:
 572:Core/u8g2/u8g2_d_setup.c **** }
 4225              		.loc 1 572 0
 4226 002c 05B0     		add	sp, sp, #20
 4227              	.LCFI194:
 4228              		.cfi_def_cfa_offset 12
 4229              		@ sp needed
 4230 002e 30BD     		pop	{r4, r5, pc}
 4231              	.LVL584:
ARM GAS  C:\Users\ASUS\AppData\Local\Temp\ccLOtXM9.s 			page 83


 4232              	.L260:
 4233              		.align	2
 4234              	.L259:
 4235 0030 00000000 		.word	u8x8_cad_ssd13xx_i2c
 4236 0034 00000000 		.word	u8x8_d_sh1106_64x32
 4237 0038 00000000 		.word	u8g2_ll_hvline_vertical_top_lsb
 4238              		.cfi_endproc
 4239              	.LFE64:
 4241              		.section	.text.u8g2_Setup_sh1106_i2c_64x32_f,"ax",%progbits
 4242              		.align	1
 4243              		.global	u8g2_Setup_sh1106_i2c_64x32_f
 4244              		.syntax unified
 4245              		.thumb
 4246              		.thumb_func
 4247              		.fpu softvfp
 4249              	u8g2_Setup_sh1106_i2c_64x32_f:
 4250              	.LFB65:
 573:Core/u8g2/u8g2_d_setup.c **** /* sh1106 f */
 574:Core/u8g2/u8g2_d_setup.c **** void u8g2_Setup_sh1106_i2c_64x32_f(u8g2_t *u8g2, const u8g2_cb_t *rotation, u8x8_msg_cb byte_cb, u8
 575:Core/u8g2/u8g2_d_setup.c **** {
 4251              		.loc 1 575 0
 4252              		.cfi_startproc
 4253              		@ args = 0, pretend = 0, frame = 8
 4254              		@ frame_needed = 0, uses_anonymous_args = 0
 4255              	.LVL585:
 4256 0000 30B5     		push	{r4, r5, lr}
 4257              	.LCFI195:
 4258              		.cfi_def_cfa_offset 12
 4259              		.cfi_offset 4, -12
 4260              		.cfi_offset 5, -8
 4261              		.cfi_offset 14, -4
 4262 0002 85B0     		sub	sp, sp, #20
 4263              	.LCFI196:
 4264              		.cfi_def_cfa_offset 32
 4265 0004 0446     		mov	r4, r0
 4266 0006 0D46     		mov	r5, r1
 576:Core/u8g2/u8g2_d_setup.c ****   uint8_t tile_buf_height;
 577:Core/u8g2/u8g2_d_setup.c ****   uint8_t *buf;
 578:Core/u8g2/u8g2_d_setup.c ****   u8g2_SetupDisplay(u8g2, u8x8_d_sh1106_64x32, u8x8_cad_ssd13xx_i2c, byte_cb, gpio_and_delay_cb);
 4267              		.loc 1 578 0
 4268 0008 0093     		str	r3, [sp]
 4269 000a 1346     		mov	r3, r2
 4270              	.LVL586:
 4271 000c 084A     		ldr	r2, .L263
 4272              	.LVL587:
 4273 000e 0949     		ldr	r1, .L263+4
 4274              	.LVL588:
 4275 0010 FFF7FEFF 		bl	u8x8_Setup
 4276              	.LVL589:
 579:Core/u8g2/u8g2_d_setup.c ****   buf = u8g2_m_8_4_f(&tile_buf_height);
 4277              		.loc 1 579 0
 4278 0014 0DF10F00 		add	r0, sp, #15
 4279 0018 FFF7FEFF 		bl	u8g2_m_8_4_f
 4280              	.LVL590:
 580:Core/u8g2/u8g2_d_setup.c ****   u8g2_SetupBuffer(u8g2, buf, tile_buf_height, u8g2_ll_hvline_vertical_top_lsb, rotation);
 4281              		.loc 1 580 0
 4282 001c 9DF80F20 		ldrb	r2, [sp, #15]	@ zero_extendqisi2
ARM GAS  C:\Users\ASUS\AppData\Local\Temp\ccLOtXM9.s 			page 84


 4283 0020 0095     		str	r5, [sp]
 4284 0022 054B     		ldr	r3, .L263+8
 4285 0024 0146     		mov	r1, r0
 4286 0026 2046     		mov	r0, r4
 4287              	.LVL591:
 4288 0028 FFF7FEFF 		bl	u8g2_SetupBuffer
 4289              	.LVL592:
 581:Core/u8g2/u8g2_d_setup.c **** }
 4290              		.loc 1 581 0
 4291 002c 05B0     		add	sp, sp, #20
 4292              	.LCFI197:
 4293              		.cfi_def_cfa_offset 12
 4294              		@ sp needed
 4295 002e 30BD     		pop	{r4, r5, pc}
 4296              	.LVL593:
 4297              	.L264:
 4298              		.align	2
 4299              	.L263:
 4300 0030 00000000 		.word	u8x8_cad_ssd13xx_i2c
 4301 0034 00000000 		.word	u8x8_d_sh1106_64x32
 4302 0038 00000000 		.word	u8g2_ll_hvline_vertical_top_lsb
 4303              		.cfi_endproc
 4304              	.LFE65:
 4306              		.section	.text.u8g2_Setup_sh1107_64x128_1,"ax",%progbits
 4307              		.align	1
 4308              		.global	u8g2_Setup_sh1107_64x128_1
 4309              		.syntax unified
 4310              		.thumb
 4311              		.thumb_func
 4312              		.fpu softvfp
 4314              	u8g2_Setup_sh1107_64x128_1:
 4315              	.LFB66:
 582:Core/u8g2/u8g2_d_setup.c **** /* sh1107 */
 583:Core/u8g2/u8g2_d_setup.c **** /* sh1107 1 */
 584:Core/u8g2/u8g2_d_setup.c **** void u8g2_Setup_sh1107_64x128_1(u8g2_t *u8g2, const u8g2_cb_t *rotation, u8x8_msg_cb byte_cb, u8x8_
 585:Core/u8g2/u8g2_d_setup.c **** {
 4316              		.loc 1 585 0
 4317              		.cfi_startproc
 4318              		@ args = 0, pretend = 0, frame = 8
 4319              		@ frame_needed = 0, uses_anonymous_args = 0
 4320              	.LVL594:
 4321 0000 30B5     		push	{r4, r5, lr}
 4322              	.LCFI198:
 4323              		.cfi_def_cfa_offset 12
 4324              		.cfi_offset 4, -12
 4325              		.cfi_offset 5, -8
 4326              		.cfi_offset 14, -4
 4327 0002 85B0     		sub	sp, sp, #20
 4328              	.LCFI199:
 4329              		.cfi_def_cfa_offset 32
 4330 0004 0446     		mov	r4, r0
 4331 0006 0D46     		mov	r5, r1
 586:Core/u8g2/u8g2_d_setup.c ****   uint8_t tile_buf_height;
 587:Core/u8g2/u8g2_d_setup.c ****   uint8_t *buf;
 588:Core/u8g2/u8g2_d_setup.c ****   u8g2_SetupDisplay(u8g2, u8x8_d_sh1107_64x128, u8x8_cad_001, byte_cb, gpio_and_delay_cb);
 4332              		.loc 1 588 0
 4333 0008 0093     		str	r3, [sp]
ARM GAS  C:\Users\ASUS\AppData\Local\Temp\ccLOtXM9.s 			page 85


 4334 000a 1346     		mov	r3, r2
 4335              	.LVL595:
 4336 000c 084A     		ldr	r2, .L267
 4337              	.LVL596:
 4338 000e 0949     		ldr	r1, .L267+4
 4339              	.LVL597:
 4340 0010 FFF7FEFF 		bl	u8x8_Setup
 4341              	.LVL598:
 589:Core/u8g2/u8g2_d_setup.c ****   buf = u8g2_m_8_16_1(&tile_buf_height);
 4342              		.loc 1 589 0
 4343 0014 0DF10F00 		add	r0, sp, #15
 4344 0018 FFF7FEFF 		bl	u8g2_m_8_16_1
 4345              	.LVL599:
 590:Core/u8g2/u8g2_d_setup.c ****   u8g2_SetupBuffer(u8g2, buf, tile_buf_height, u8g2_ll_hvline_vertical_top_lsb, rotation);
 4346              		.loc 1 590 0
 4347 001c 9DF80F20 		ldrb	r2, [sp, #15]	@ zero_extendqisi2
 4348 0020 0095     		str	r5, [sp]
 4349 0022 054B     		ldr	r3, .L267+8
 4350 0024 0146     		mov	r1, r0
 4351 0026 2046     		mov	r0, r4
 4352              	.LVL600:
 4353 0028 FFF7FEFF 		bl	u8g2_SetupBuffer
 4354              	.LVL601:
 591:Core/u8g2/u8g2_d_setup.c **** }
 4355              		.loc 1 591 0
 4356 002c 05B0     		add	sp, sp, #20
 4357              	.LCFI200:
 4358              		.cfi_def_cfa_offset 12
 4359              		@ sp needed
 4360 002e 30BD     		pop	{r4, r5, pc}
 4361              	.LVL602:
 4362              	.L268:
 4363              		.align	2
 4364              	.L267:
 4365 0030 00000000 		.word	u8x8_cad_001
 4366 0034 00000000 		.word	u8x8_d_sh1107_64x128
 4367 0038 00000000 		.word	u8g2_ll_hvline_vertical_top_lsb
 4368              		.cfi_endproc
 4369              	.LFE66:
 4371              		.section	.text.u8g2_Setup_sh1107_64x128_2,"ax",%progbits
 4372              		.align	1
 4373              		.global	u8g2_Setup_sh1107_64x128_2
 4374              		.syntax unified
 4375              		.thumb
 4376              		.thumb_func
 4377              		.fpu softvfp
 4379              	u8g2_Setup_sh1107_64x128_2:
 4380              	.LFB67:
 592:Core/u8g2/u8g2_d_setup.c **** /* sh1107 2 */
 593:Core/u8g2/u8g2_d_setup.c **** void u8g2_Setup_sh1107_64x128_2(u8g2_t *u8g2, const u8g2_cb_t *rotation, u8x8_msg_cb byte_cb, u8x8_
 594:Core/u8g2/u8g2_d_setup.c **** {
 4381              		.loc 1 594 0
 4382              		.cfi_startproc
 4383              		@ args = 0, pretend = 0, frame = 8
 4384              		@ frame_needed = 0, uses_anonymous_args = 0
 4385              	.LVL603:
 4386 0000 30B5     		push	{r4, r5, lr}
ARM GAS  C:\Users\ASUS\AppData\Local\Temp\ccLOtXM9.s 			page 86


 4387              	.LCFI201:
 4388              		.cfi_def_cfa_offset 12
 4389              		.cfi_offset 4, -12
 4390              		.cfi_offset 5, -8
 4391              		.cfi_offset 14, -4
 4392 0002 85B0     		sub	sp, sp, #20
 4393              	.LCFI202:
 4394              		.cfi_def_cfa_offset 32
 4395 0004 0446     		mov	r4, r0
 4396 0006 0D46     		mov	r5, r1
 595:Core/u8g2/u8g2_d_setup.c ****   uint8_t tile_buf_height;
 596:Core/u8g2/u8g2_d_setup.c ****   uint8_t *buf;
 597:Core/u8g2/u8g2_d_setup.c ****   u8g2_SetupDisplay(u8g2, u8x8_d_sh1107_64x128, u8x8_cad_001, byte_cb, gpio_and_delay_cb);
 4397              		.loc 1 597 0
 4398 0008 0093     		str	r3, [sp]
 4399 000a 1346     		mov	r3, r2
 4400              	.LVL604:
 4401 000c 084A     		ldr	r2, .L271
 4402              	.LVL605:
 4403 000e 0949     		ldr	r1, .L271+4
 4404              	.LVL606:
 4405 0010 FFF7FEFF 		bl	u8x8_Setup
 4406              	.LVL607:
 598:Core/u8g2/u8g2_d_setup.c ****   buf = u8g2_m_8_16_2(&tile_buf_height);
 4407              		.loc 1 598 0
 4408 0014 0DF10F00 		add	r0, sp, #15
 4409 0018 FFF7FEFF 		bl	u8g2_m_8_16_2
 4410              	.LVL608:
 599:Core/u8g2/u8g2_d_setup.c ****   u8g2_SetupBuffer(u8g2, buf, tile_buf_height, u8g2_ll_hvline_vertical_top_lsb, rotation);
 4411              		.loc 1 599 0
 4412 001c 9DF80F20 		ldrb	r2, [sp, #15]	@ zero_extendqisi2
 4413 0020 0095     		str	r5, [sp]
 4414 0022 054B     		ldr	r3, .L271+8
 4415 0024 0146     		mov	r1, r0
 4416 0026 2046     		mov	r0, r4
 4417              	.LVL609:
 4418 0028 FFF7FEFF 		bl	u8g2_SetupBuffer
 4419              	.LVL610:
 600:Core/u8g2/u8g2_d_setup.c **** }
 4420              		.loc 1 600 0
 4421 002c 05B0     		add	sp, sp, #20
 4422              	.LCFI203:
 4423              		.cfi_def_cfa_offset 12
 4424              		@ sp needed
 4425 002e 30BD     		pop	{r4, r5, pc}
 4426              	.LVL611:
 4427              	.L272:
 4428              		.align	2
 4429              	.L271:
 4430 0030 00000000 		.word	u8x8_cad_001
 4431 0034 00000000 		.word	u8x8_d_sh1107_64x128
 4432 0038 00000000 		.word	u8g2_ll_hvline_vertical_top_lsb
 4433              		.cfi_endproc
 4434              	.LFE67:
 4436              		.section	.text.u8g2_Setup_sh1107_64x128_f,"ax",%progbits
 4437              		.align	1
 4438              		.global	u8g2_Setup_sh1107_64x128_f
ARM GAS  C:\Users\ASUS\AppData\Local\Temp\ccLOtXM9.s 			page 87


 4439              		.syntax unified
 4440              		.thumb
 4441              		.thumb_func
 4442              		.fpu softvfp
 4444              	u8g2_Setup_sh1107_64x128_f:
 4445              	.LFB68:
 601:Core/u8g2/u8g2_d_setup.c **** /* sh1107 f */
 602:Core/u8g2/u8g2_d_setup.c **** void u8g2_Setup_sh1107_64x128_f(u8g2_t *u8g2, const u8g2_cb_t *rotation, u8x8_msg_cb byte_cb, u8x8_
 603:Core/u8g2/u8g2_d_setup.c **** {
 4446              		.loc 1 603 0
 4447              		.cfi_startproc
 4448              		@ args = 0, pretend = 0, frame = 8
 4449              		@ frame_needed = 0, uses_anonymous_args = 0
 4450              	.LVL612:
 4451 0000 30B5     		push	{r4, r5, lr}
 4452              	.LCFI204:
 4453              		.cfi_def_cfa_offset 12
 4454              		.cfi_offset 4, -12
 4455              		.cfi_offset 5, -8
 4456              		.cfi_offset 14, -4
 4457 0002 85B0     		sub	sp, sp, #20
 4458              	.LCFI205:
 4459              		.cfi_def_cfa_offset 32
 4460 0004 0446     		mov	r4, r0
 4461 0006 0D46     		mov	r5, r1
 604:Core/u8g2/u8g2_d_setup.c ****   uint8_t tile_buf_height;
 605:Core/u8g2/u8g2_d_setup.c ****   uint8_t *buf;
 606:Core/u8g2/u8g2_d_setup.c ****   u8g2_SetupDisplay(u8g2, u8x8_d_sh1107_64x128, u8x8_cad_001, byte_cb, gpio_and_delay_cb);
 4462              		.loc 1 606 0
 4463 0008 0093     		str	r3, [sp]
 4464 000a 1346     		mov	r3, r2
 4465              	.LVL613:
 4466 000c 084A     		ldr	r2, .L275
 4467              	.LVL614:
 4468 000e 0949     		ldr	r1, .L275+4
 4469              	.LVL615:
 4470 0010 FFF7FEFF 		bl	u8x8_Setup
 4471              	.LVL616:
 607:Core/u8g2/u8g2_d_setup.c ****   buf = u8g2_m_8_16_f(&tile_buf_height);
 4472              		.loc 1 607 0
 4473 0014 0DF10F00 		add	r0, sp, #15
 4474 0018 FFF7FEFF 		bl	u8g2_m_8_16_f
 4475              	.LVL617:
 608:Core/u8g2/u8g2_d_setup.c ****   u8g2_SetupBuffer(u8g2, buf, tile_buf_height, u8g2_ll_hvline_vertical_top_lsb, rotation);
 4476              		.loc 1 608 0
 4477 001c 9DF80F20 		ldrb	r2, [sp, #15]	@ zero_extendqisi2
 4478 0020 0095     		str	r5, [sp]
 4479 0022 054B     		ldr	r3, .L275+8
 4480 0024 0146     		mov	r1, r0
 4481 0026 2046     		mov	r0, r4
 4482              	.LVL618:
 4483 0028 FFF7FEFF 		bl	u8g2_SetupBuffer
 4484              	.LVL619:
 609:Core/u8g2/u8g2_d_setup.c **** }
 4485              		.loc 1 609 0
 4486 002c 05B0     		add	sp, sp, #20
 4487              	.LCFI206:
ARM GAS  C:\Users\ASUS\AppData\Local\Temp\ccLOtXM9.s 			page 88


 4488              		.cfi_def_cfa_offset 12
 4489              		@ sp needed
 4490 002e 30BD     		pop	{r4, r5, pc}
 4491              	.LVL620:
 4492              	.L276:
 4493              		.align	2
 4494              	.L275:
 4495 0030 00000000 		.word	u8x8_cad_001
 4496 0034 00000000 		.word	u8x8_d_sh1107_64x128
 4497 0038 00000000 		.word	u8g2_ll_hvline_vertical_top_lsb
 4498              		.cfi_endproc
 4499              	.LFE68:
 4501              		.section	.text.u8g2_Setup_sh1107_i2c_64x128_1,"ax",%progbits
 4502              		.align	1
 4503              		.global	u8g2_Setup_sh1107_i2c_64x128_1
 4504              		.syntax unified
 4505              		.thumb
 4506              		.thumb_func
 4507              		.fpu softvfp
 4509              	u8g2_Setup_sh1107_i2c_64x128_1:
 4510              	.LFB69:
 610:Core/u8g2/u8g2_d_setup.c **** /* sh1107 */
 611:Core/u8g2/u8g2_d_setup.c **** /* sh1107 1 */
 612:Core/u8g2/u8g2_d_setup.c **** void u8g2_Setup_sh1107_i2c_64x128_1(u8g2_t *u8g2, const u8g2_cb_t *rotation, u8x8_msg_cb byte_cb, u
 613:Core/u8g2/u8g2_d_setup.c **** {
 4511              		.loc 1 613 0
 4512              		.cfi_startproc
 4513              		@ args = 0, pretend = 0, frame = 8
 4514              		@ frame_needed = 0, uses_anonymous_args = 0
 4515              	.LVL621:
 4516 0000 30B5     		push	{r4, r5, lr}
 4517              	.LCFI207:
 4518              		.cfi_def_cfa_offset 12
 4519              		.cfi_offset 4, -12
 4520              		.cfi_offset 5, -8
 4521              		.cfi_offset 14, -4
 4522 0002 85B0     		sub	sp, sp, #20
 4523              	.LCFI208:
 4524              		.cfi_def_cfa_offset 32
 4525 0004 0446     		mov	r4, r0
 4526 0006 0D46     		mov	r5, r1
 614:Core/u8g2/u8g2_d_setup.c ****   uint8_t tile_buf_height;
 615:Core/u8g2/u8g2_d_setup.c ****   uint8_t *buf;
 616:Core/u8g2/u8g2_d_setup.c ****   u8g2_SetupDisplay(u8g2, u8x8_d_sh1107_64x128, u8x8_cad_ssd13xx_i2c, byte_cb, gpio_and_delay_cb);
 4527              		.loc 1 616 0
 4528 0008 0093     		str	r3, [sp]
 4529 000a 1346     		mov	r3, r2
 4530              	.LVL622:
 4531 000c 084A     		ldr	r2, .L279
 4532              	.LVL623:
 4533 000e 0949     		ldr	r1, .L279+4
 4534              	.LVL624:
 4535 0010 FFF7FEFF 		bl	u8x8_Setup
 4536              	.LVL625:
 617:Core/u8g2/u8g2_d_setup.c ****   buf = u8g2_m_8_16_1(&tile_buf_height);
 4537              		.loc 1 617 0
 4538 0014 0DF10F00 		add	r0, sp, #15
ARM GAS  C:\Users\ASUS\AppData\Local\Temp\ccLOtXM9.s 			page 89


 4539 0018 FFF7FEFF 		bl	u8g2_m_8_16_1
 4540              	.LVL626:
 618:Core/u8g2/u8g2_d_setup.c ****   u8g2_SetupBuffer(u8g2, buf, tile_buf_height, u8g2_ll_hvline_vertical_top_lsb, rotation);
 4541              		.loc 1 618 0
 4542 001c 9DF80F20 		ldrb	r2, [sp, #15]	@ zero_extendqisi2
 4543 0020 0095     		str	r5, [sp]
 4544 0022 054B     		ldr	r3, .L279+8
 4545 0024 0146     		mov	r1, r0
 4546 0026 2046     		mov	r0, r4
 4547              	.LVL627:
 4548 0028 FFF7FEFF 		bl	u8g2_SetupBuffer
 4549              	.LVL628:
 619:Core/u8g2/u8g2_d_setup.c **** }
 4550              		.loc 1 619 0
 4551 002c 05B0     		add	sp, sp, #20
 4552              	.LCFI209:
 4553              		.cfi_def_cfa_offset 12
 4554              		@ sp needed
 4555 002e 30BD     		pop	{r4, r5, pc}
 4556              	.LVL629:
 4557              	.L280:
 4558              		.align	2
 4559              	.L279:
 4560 0030 00000000 		.word	u8x8_cad_ssd13xx_i2c
 4561 0034 00000000 		.word	u8x8_d_sh1107_64x128
 4562 0038 00000000 		.word	u8g2_ll_hvline_vertical_top_lsb
 4563              		.cfi_endproc
 4564              	.LFE69:
 4566              		.section	.text.u8g2_Setup_sh1107_i2c_64x128_2,"ax",%progbits
 4567              		.align	1
 4568              		.global	u8g2_Setup_sh1107_i2c_64x128_2
 4569              		.syntax unified
 4570              		.thumb
 4571              		.thumb_func
 4572              		.fpu softvfp
 4574              	u8g2_Setup_sh1107_i2c_64x128_2:
 4575              	.LFB70:
 620:Core/u8g2/u8g2_d_setup.c **** /* sh1107 2 */
 621:Core/u8g2/u8g2_d_setup.c **** void u8g2_Setup_sh1107_i2c_64x128_2(u8g2_t *u8g2, const u8g2_cb_t *rotation, u8x8_msg_cb byte_cb, u
 622:Core/u8g2/u8g2_d_setup.c **** {
 4576              		.loc 1 622 0
 4577              		.cfi_startproc
 4578              		@ args = 0, pretend = 0, frame = 8
 4579              		@ frame_needed = 0, uses_anonymous_args = 0
 4580              	.LVL630:
 4581 0000 30B5     		push	{r4, r5, lr}
 4582              	.LCFI210:
 4583              		.cfi_def_cfa_offset 12
 4584              		.cfi_offset 4, -12
 4585              		.cfi_offset 5, -8
 4586              		.cfi_offset 14, -4
 4587 0002 85B0     		sub	sp, sp, #20
 4588              	.LCFI211:
 4589              		.cfi_def_cfa_offset 32
 4590 0004 0446     		mov	r4, r0
 4591 0006 0D46     		mov	r5, r1
 623:Core/u8g2/u8g2_d_setup.c ****   uint8_t tile_buf_height;
ARM GAS  C:\Users\ASUS\AppData\Local\Temp\ccLOtXM9.s 			page 90


 624:Core/u8g2/u8g2_d_setup.c ****   uint8_t *buf;
 625:Core/u8g2/u8g2_d_setup.c ****   u8g2_SetupDisplay(u8g2, u8x8_d_sh1107_64x128, u8x8_cad_ssd13xx_i2c, byte_cb, gpio_and_delay_cb);
 4592              		.loc 1 625 0
 4593 0008 0093     		str	r3, [sp]
 4594 000a 1346     		mov	r3, r2
 4595              	.LVL631:
 4596 000c 084A     		ldr	r2, .L283
 4597              	.LVL632:
 4598 000e 0949     		ldr	r1, .L283+4
 4599              	.LVL633:
 4600 0010 FFF7FEFF 		bl	u8x8_Setup
 4601              	.LVL634:
 626:Core/u8g2/u8g2_d_setup.c ****   buf = u8g2_m_8_16_2(&tile_buf_height);
 4602              		.loc 1 626 0
 4603 0014 0DF10F00 		add	r0, sp, #15
 4604 0018 FFF7FEFF 		bl	u8g2_m_8_16_2
 4605              	.LVL635:
 627:Core/u8g2/u8g2_d_setup.c ****   u8g2_SetupBuffer(u8g2, buf, tile_buf_height, u8g2_ll_hvline_vertical_top_lsb, rotation);
 4606              		.loc 1 627 0
 4607 001c 9DF80F20 		ldrb	r2, [sp, #15]	@ zero_extendqisi2
 4608 0020 0095     		str	r5, [sp]
 4609 0022 054B     		ldr	r3, .L283+8
 4610 0024 0146     		mov	r1, r0
 4611 0026 2046     		mov	r0, r4
 4612              	.LVL636:
 4613 0028 FFF7FEFF 		bl	u8g2_SetupBuffer
 4614              	.LVL637:
 628:Core/u8g2/u8g2_d_setup.c **** }
 4615              		.loc 1 628 0
 4616 002c 05B0     		add	sp, sp, #20
 4617              	.LCFI212:
 4618              		.cfi_def_cfa_offset 12
 4619              		@ sp needed
 4620 002e 30BD     		pop	{r4, r5, pc}
 4621              	.LVL638:
 4622              	.L284:
 4623              		.align	2
 4624              	.L283:
 4625 0030 00000000 		.word	u8x8_cad_ssd13xx_i2c
 4626 0034 00000000 		.word	u8x8_d_sh1107_64x128
 4627 0038 00000000 		.word	u8g2_ll_hvline_vertical_top_lsb
 4628              		.cfi_endproc
 4629              	.LFE70:
 4631              		.section	.text.u8g2_Setup_sh1107_i2c_64x128_f,"ax",%progbits
 4632              		.align	1
 4633              		.global	u8g2_Setup_sh1107_i2c_64x128_f
 4634              		.syntax unified
 4635              		.thumb
 4636              		.thumb_func
 4637              		.fpu softvfp
 4639              	u8g2_Setup_sh1107_i2c_64x128_f:
 4640              	.LFB71:
 629:Core/u8g2/u8g2_d_setup.c **** /* sh1107 f */
 630:Core/u8g2/u8g2_d_setup.c **** void u8g2_Setup_sh1107_i2c_64x128_f(u8g2_t *u8g2, const u8g2_cb_t *rotation, u8x8_msg_cb byte_cb, u
 631:Core/u8g2/u8g2_d_setup.c **** {
 4641              		.loc 1 631 0
 4642              		.cfi_startproc
ARM GAS  C:\Users\ASUS\AppData\Local\Temp\ccLOtXM9.s 			page 91


 4643              		@ args = 0, pretend = 0, frame = 8
 4644              		@ frame_needed = 0, uses_anonymous_args = 0
 4645              	.LVL639:
 4646 0000 30B5     		push	{r4, r5, lr}
 4647              	.LCFI213:
 4648              		.cfi_def_cfa_offset 12
 4649              		.cfi_offset 4, -12
 4650              		.cfi_offset 5, -8
 4651              		.cfi_offset 14, -4
 4652 0002 85B0     		sub	sp, sp, #20
 4653              	.LCFI214:
 4654              		.cfi_def_cfa_offset 32
 4655 0004 0446     		mov	r4, r0
 4656 0006 0D46     		mov	r5, r1
 632:Core/u8g2/u8g2_d_setup.c ****   uint8_t tile_buf_height;
 633:Core/u8g2/u8g2_d_setup.c ****   uint8_t *buf;
 634:Core/u8g2/u8g2_d_setup.c ****   u8g2_SetupDisplay(u8g2, u8x8_d_sh1107_64x128, u8x8_cad_ssd13xx_i2c, byte_cb, gpio_and_delay_cb);
 4657              		.loc 1 634 0
 4658 0008 0093     		str	r3, [sp]
 4659 000a 1346     		mov	r3, r2
 4660              	.LVL640:
 4661 000c 084A     		ldr	r2, .L287
 4662              	.LVL641:
 4663 000e 0949     		ldr	r1, .L287+4
 4664              	.LVL642:
 4665 0010 FFF7FEFF 		bl	u8x8_Setup
 4666              	.LVL643:
 635:Core/u8g2/u8g2_d_setup.c ****   buf = u8g2_m_8_16_f(&tile_buf_height);
 4667              		.loc 1 635 0
 4668 0014 0DF10F00 		add	r0, sp, #15
 4669 0018 FFF7FEFF 		bl	u8g2_m_8_16_f
 4670              	.LVL644:
 636:Core/u8g2/u8g2_d_setup.c ****   u8g2_SetupBuffer(u8g2, buf, tile_buf_height, u8g2_ll_hvline_vertical_top_lsb, rotation);
 4671              		.loc 1 636 0
 4672 001c 9DF80F20 		ldrb	r2, [sp, #15]	@ zero_extendqisi2
 4673 0020 0095     		str	r5, [sp]
 4674 0022 054B     		ldr	r3, .L287+8
 4675 0024 0146     		mov	r1, r0
 4676 0026 2046     		mov	r0, r4
 4677              	.LVL645:
 4678 0028 FFF7FEFF 		bl	u8g2_SetupBuffer
 4679              	.LVL646:
 637:Core/u8g2/u8g2_d_setup.c **** }
 4680              		.loc 1 637 0
 4681 002c 05B0     		add	sp, sp, #20
 4682              	.LCFI215:
 4683              		.cfi_def_cfa_offset 12
 4684              		@ sp needed
 4685 002e 30BD     		pop	{r4, r5, pc}
 4686              	.LVL647:
 4687              	.L288:
 4688              		.align	2
 4689              	.L287:
 4690 0030 00000000 		.word	u8x8_cad_ssd13xx_i2c
 4691 0034 00000000 		.word	u8x8_d_sh1107_64x128
 4692 0038 00000000 		.word	u8g2_ll_hvline_vertical_top_lsb
 4693              		.cfi_endproc
ARM GAS  C:\Users\ASUS\AppData\Local\Temp\ccLOtXM9.s 			page 92


 4694              	.LFE71:
 4696              		.section	.text.u8g2_Setup_sh1107_seeed_96x96_1,"ax",%progbits
 4697              		.align	1
 4698              		.global	u8g2_Setup_sh1107_seeed_96x96_1
 4699              		.syntax unified
 4700              		.thumb
 4701              		.thumb_func
 4702              		.fpu softvfp
 4704              	u8g2_Setup_sh1107_seeed_96x96_1:
 4705              	.LFB72:
 638:Core/u8g2/u8g2_d_setup.c **** /* sh1107 */
 639:Core/u8g2/u8g2_d_setup.c **** /* sh1107 1 */
 640:Core/u8g2/u8g2_d_setup.c **** void u8g2_Setup_sh1107_seeed_96x96_1(u8g2_t *u8g2, const u8g2_cb_t *rotation, u8x8_msg_cb byte_cb, 
 641:Core/u8g2/u8g2_d_setup.c **** {
 4706              		.loc 1 641 0
 4707              		.cfi_startproc
 4708              		@ args = 0, pretend = 0, frame = 8
 4709              		@ frame_needed = 0, uses_anonymous_args = 0
 4710              	.LVL648:
 4711 0000 30B5     		push	{r4, r5, lr}
 4712              	.LCFI216:
 4713              		.cfi_def_cfa_offset 12
 4714              		.cfi_offset 4, -12
 4715              		.cfi_offset 5, -8
 4716              		.cfi_offset 14, -4
 4717 0002 85B0     		sub	sp, sp, #20
 4718              	.LCFI217:
 4719              		.cfi_def_cfa_offset 32
 4720 0004 0446     		mov	r4, r0
 4721 0006 0D46     		mov	r5, r1
 642:Core/u8g2/u8g2_d_setup.c ****   uint8_t tile_buf_height;
 643:Core/u8g2/u8g2_d_setup.c ****   uint8_t *buf;
 644:Core/u8g2/u8g2_d_setup.c ****   u8g2_SetupDisplay(u8g2, u8x8_d_sh1107_seeed_96x96, u8x8_cad_001, byte_cb, gpio_and_delay_cb);
 4722              		.loc 1 644 0
 4723 0008 0093     		str	r3, [sp]
 4724 000a 1346     		mov	r3, r2
 4725              	.LVL649:
 4726 000c 084A     		ldr	r2, .L291
 4727              	.LVL650:
 4728 000e 0949     		ldr	r1, .L291+4
 4729              	.LVL651:
 4730 0010 FFF7FEFF 		bl	u8x8_Setup
 4731              	.LVL652:
 645:Core/u8g2/u8g2_d_setup.c ****   buf = u8g2_m_12_12_1(&tile_buf_height);
 4732              		.loc 1 645 0
 4733 0014 0DF10F00 		add	r0, sp, #15
 4734 0018 FFF7FEFF 		bl	u8g2_m_12_12_1
 4735              	.LVL653:
 646:Core/u8g2/u8g2_d_setup.c ****   u8g2_SetupBuffer(u8g2, buf, tile_buf_height, u8g2_ll_hvline_vertical_top_lsb, rotation);
 4736              		.loc 1 646 0
 4737 001c 9DF80F20 		ldrb	r2, [sp, #15]	@ zero_extendqisi2
 4738 0020 0095     		str	r5, [sp]
 4739 0022 054B     		ldr	r3, .L291+8
 4740 0024 0146     		mov	r1, r0
 4741 0026 2046     		mov	r0, r4
 4742              	.LVL654:
 4743 0028 FFF7FEFF 		bl	u8g2_SetupBuffer
ARM GAS  C:\Users\ASUS\AppData\Local\Temp\ccLOtXM9.s 			page 93


 4744              	.LVL655:
 647:Core/u8g2/u8g2_d_setup.c **** }
 4745              		.loc 1 647 0
 4746 002c 05B0     		add	sp, sp, #20
 4747              	.LCFI218:
 4748              		.cfi_def_cfa_offset 12
 4749              		@ sp needed
 4750 002e 30BD     		pop	{r4, r5, pc}
 4751              	.LVL656:
 4752              	.L292:
 4753              		.align	2
 4754              	.L291:
 4755 0030 00000000 		.word	u8x8_cad_001
 4756 0034 00000000 		.word	u8x8_d_sh1107_seeed_96x96
 4757 0038 00000000 		.word	u8g2_ll_hvline_vertical_top_lsb
 4758              		.cfi_endproc
 4759              	.LFE72:
 4761              		.section	.text.u8g2_Setup_sh1107_seeed_96x96_2,"ax",%progbits
 4762              		.align	1
 4763              		.global	u8g2_Setup_sh1107_seeed_96x96_2
 4764              		.syntax unified
 4765              		.thumb
 4766              		.thumb_func
 4767              		.fpu softvfp
 4769              	u8g2_Setup_sh1107_seeed_96x96_2:
 4770              	.LFB73:
 648:Core/u8g2/u8g2_d_setup.c **** /* sh1107 2 */
 649:Core/u8g2/u8g2_d_setup.c **** void u8g2_Setup_sh1107_seeed_96x96_2(u8g2_t *u8g2, const u8g2_cb_t *rotation, u8x8_msg_cb byte_cb, 
 650:Core/u8g2/u8g2_d_setup.c **** {
 4771              		.loc 1 650 0
 4772              		.cfi_startproc
 4773              		@ args = 0, pretend = 0, frame = 8
 4774              		@ frame_needed = 0, uses_anonymous_args = 0
 4775              	.LVL657:
 4776 0000 30B5     		push	{r4, r5, lr}
 4777              	.LCFI219:
 4778              		.cfi_def_cfa_offset 12
 4779              		.cfi_offset 4, -12
 4780              		.cfi_offset 5, -8
 4781              		.cfi_offset 14, -4
 4782 0002 85B0     		sub	sp, sp, #20
 4783              	.LCFI220:
 4784              		.cfi_def_cfa_offset 32
 4785 0004 0446     		mov	r4, r0
 4786 0006 0D46     		mov	r5, r1
 651:Core/u8g2/u8g2_d_setup.c ****   uint8_t tile_buf_height;
 652:Core/u8g2/u8g2_d_setup.c ****   uint8_t *buf;
 653:Core/u8g2/u8g2_d_setup.c ****   u8g2_SetupDisplay(u8g2, u8x8_d_sh1107_seeed_96x96, u8x8_cad_001, byte_cb, gpio_and_delay_cb);
 4787              		.loc 1 653 0
 4788 0008 0093     		str	r3, [sp]
 4789 000a 1346     		mov	r3, r2
 4790              	.LVL658:
 4791 000c 084A     		ldr	r2, .L295
 4792              	.LVL659:
 4793 000e 0949     		ldr	r1, .L295+4
 4794              	.LVL660:
 4795 0010 FFF7FEFF 		bl	u8x8_Setup
ARM GAS  C:\Users\ASUS\AppData\Local\Temp\ccLOtXM9.s 			page 94


 4796              	.LVL661:
 654:Core/u8g2/u8g2_d_setup.c ****   buf = u8g2_m_12_12_2(&tile_buf_height);
 4797              		.loc 1 654 0
 4798 0014 0DF10F00 		add	r0, sp, #15
 4799 0018 FFF7FEFF 		bl	u8g2_m_12_12_2
 4800              	.LVL662:
 655:Core/u8g2/u8g2_d_setup.c ****   u8g2_SetupBuffer(u8g2, buf, tile_buf_height, u8g2_ll_hvline_vertical_top_lsb, rotation);
 4801              		.loc 1 655 0
 4802 001c 9DF80F20 		ldrb	r2, [sp, #15]	@ zero_extendqisi2
 4803 0020 0095     		str	r5, [sp]
 4804 0022 054B     		ldr	r3, .L295+8
 4805 0024 0146     		mov	r1, r0
 4806 0026 2046     		mov	r0, r4
 4807              	.LVL663:
 4808 0028 FFF7FEFF 		bl	u8g2_SetupBuffer
 4809              	.LVL664:
 656:Core/u8g2/u8g2_d_setup.c **** }
 4810              		.loc 1 656 0
 4811 002c 05B0     		add	sp, sp, #20
 4812              	.LCFI221:
 4813              		.cfi_def_cfa_offset 12
 4814              		@ sp needed
 4815 002e 30BD     		pop	{r4, r5, pc}
 4816              	.LVL665:
 4817              	.L296:
 4818              		.align	2
 4819              	.L295:
 4820 0030 00000000 		.word	u8x8_cad_001
 4821 0034 00000000 		.word	u8x8_d_sh1107_seeed_96x96
 4822 0038 00000000 		.word	u8g2_ll_hvline_vertical_top_lsb
 4823              		.cfi_endproc
 4824              	.LFE73:
 4826              		.section	.text.u8g2_Setup_sh1107_seeed_96x96_f,"ax",%progbits
 4827              		.align	1
 4828              		.global	u8g2_Setup_sh1107_seeed_96x96_f
 4829              		.syntax unified
 4830              		.thumb
 4831              		.thumb_func
 4832              		.fpu softvfp
 4834              	u8g2_Setup_sh1107_seeed_96x96_f:
 4835              	.LFB74:
 657:Core/u8g2/u8g2_d_setup.c **** /* sh1107 f */
 658:Core/u8g2/u8g2_d_setup.c **** void u8g2_Setup_sh1107_seeed_96x96_f(u8g2_t *u8g2, const u8g2_cb_t *rotation, u8x8_msg_cb byte_cb, 
 659:Core/u8g2/u8g2_d_setup.c **** {
 4836              		.loc 1 659 0
 4837              		.cfi_startproc
 4838              		@ args = 0, pretend = 0, frame = 8
 4839              		@ frame_needed = 0, uses_anonymous_args = 0
 4840              	.LVL666:
 4841 0000 30B5     		push	{r4, r5, lr}
 4842              	.LCFI222:
 4843              		.cfi_def_cfa_offset 12
 4844              		.cfi_offset 4, -12
 4845              		.cfi_offset 5, -8
 4846              		.cfi_offset 14, -4
 4847 0002 85B0     		sub	sp, sp, #20
 4848              	.LCFI223:
ARM GAS  C:\Users\ASUS\AppData\Local\Temp\ccLOtXM9.s 			page 95


 4849              		.cfi_def_cfa_offset 32
 4850 0004 0446     		mov	r4, r0
 4851 0006 0D46     		mov	r5, r1
 660:Core/u8g2/u8g2_d_setup.c ****   uint8_t tile_buf_height;
 661:Core/u8g2/u8g2_d_setup.c ****   uint8_t *buf;
 662:Core/u8g2/u8g2_d_setup.c ****   u8g2_SetupDisplay(u8g2, u8x8_d_sh1107_seeed_96x96, u8x8_cad_001, byte_cb, gpio_and_delay_cb);
 4852              		.loc 1 662 0
 4853 0008 0093     		str	r3, [sp]
 4854 000a 1346     		mov	r3, r2
 4855              	.LVL667:
 4856 000c 084A     		ldr	r2, .L299
 4857              	.LVL668:
 4858 000e 0949     		ldr	r1, .L299+4
 4859              	.LVL669:
 4860 0010 FFF7FEFF 		bl	u8x8_Setup
 4861              	.LVL670:
 663:Core/u8g2/u8g2_d_setup.c ****   buf = u8g2_m_12_12_f(&tile_buf_height);
 4862              		.loc 1 663 0
 4863 0014 0DF10F00 		add	r0, sp, #15
 4864 0018 FFF7FEFF 		bl	u8g2_m_12_12_f
 4865              	.LVL671:
 664:Core/u8g2/u8g2_d_setup.c ****   u8g2_SetupBuffer(u8g2, buf, tile_buf_height, u8g2_ll_hvline_vertical_top_lsb, rotation);
 4866              		.loc 1 664 0
 4867 001c 9DF80F20 		ldrb	r2, [sp, #15]	@ zero_extendqisi2
 4868 0020 0095     		str	r5, [sp]
 4869 0022 054B     		ldr	r3, .L299+8
 4870 0024 0146     		mov	r1, r0
 4871 0026 2046     		mov	r0, r4
 4872              	.LVL672:
 4873 0028 FFF7FEFF 		bl	u8g2_SetupBuffer
 4874              	.LVL673:
 665:Core/u8g2/u8g2_d_setup.c **** }
 4875              		.loc 1 665 0
 4876 002c 05B0     		add	sp, sp, #20
 4877              	.LCFI224:
 4878              		.cfi_def_cfa_offset 12
 4879              		@ sp needed
 4880 002e 30BD     		pop	{r4, r5, pc}
 4881              	.LVL674:
 4882              	.L300:
 4883              		.align	2
 4884              	.L299:
 4885 0030 00000000 		.word	u8x8_cad_001
 4886 0034 00000000 		.word	u8x8_d_sh1107_seeed_96x96
 4887 0038 00000000 		.word	u8g2_ll_hvline_vertical_top_lsb
 4888              		.cfi_endproc
 4889              	.LFE74:
 4891              		.section	.text.u8g2_Setup_sh1107_i2c_seeed_96x96_1,"ax",%progbits
 4892              		.align	1
 4893              		.global	u8g2_Setup_sh1107_i2c_seeed_96x96_1
 4894              		.syntax unified
 4895              		.thumb
 4896              		.thumb_func
 4897              		.fpu softvfp
 4899              	u8g2_Setup_sh1107_i2c_seeed_96x96_1:
 4900              	.LFB75:
 666:Core/u8g2/u8g2_d_setup.c **** /* sh1107 */
ARM GAS  C:\Users\ASUS\AppData\Local\Temp\ccLOtXM9.s 			page 96


 667:Core/u8g2/u8g2_d_setup.c **** /* sh1107 1 */
 668:Core/u8g2/u8g2_d_setup.c **** void u8g2_Setup_sh1107_i2c_seeed_96x96_1(u8g2_t *u8g2, const u8g2_cb_t *rotation, u8x8_msg_cb byte_
 669:Core/u8g2/u8g2_d_setup.c **** {
 4901              		.loc 1 669 0
 4902              		.cfi_startproc
 4903              		@ args = 0, pretend = 0, frame = 8
 4904              		@ frame_needed = 0, uses_anonymous_args = 0
 4905              	.LVL675:
 4906 0000 30B5     		push	{r4, r5, lr}
 4907              	.LCFI225:
 4908              		.cfi_def_cfa_offset 12
 4909              		.cfi_offset 4, -12
 4910              		.cfi_offset 5, -8
 4911              		.cfi_offset 14, -4
 4912 0002 85B0     		sub	sp, sp, #20
 4913              	.LCFI226:
 4914              		.cfi_def_cfa_offset 32
 4915 0004 0446     		mov	r4, r0
 4916 0006 0D46     		mov	r5, r1
 670:Core/u8g2/u8g2_d_setup.c ****   uint8_t tile_buf_height;
 671:Core/u8g2/u8g2_d_setup.c ****   uint8_t *buf;
 672:Core/u8g2/u8g2_d_setup.c ****   u8g2_SetupDisplay(u8g2, u8x8_d_sh1107_seeed_96x96, u8x8_cad_ssd13xx_i2c, byte_cb, gpio_and_delay_
 4917              		.loc 1 672 0
 4918 0008 0093     		str	r3, [sp]
 4919 000a 1346     		mov	r3, r2
 4920              	.LVL676:
 4921 000c 084A     		ldr	r2, .L303
 4922              	.LVL677:
 4923 000e 0949     		ldr	r1, .L303+4
 4924              	.LVL678:
 4925 0010 FFF7FEFF 		bl	u8x8_Setup
 4926              	.LVL679:
 673:Core/u8g2/u8g2_d_setup.c ****   buf = u8g2_m_12_12_1(&tile_buf_height);
 4927              		.loc 1 673 0
 4928 0014 0DF10F00 		add	r0, sp, #15
 4929 0018 FFF7FEFF 		bl	u8g2_m_12_12_1
 4930              	.LVL680:
 674:Core/u8g2/u8g2_d_setup.c ****   u8g2_SetupBuffer(u8g2, buf, tile_buf_height, u8g2_ll_hvline_vertical_top_lsb, rotation);
 4931              		.loc 1 674 0
 4932 001c 9DF80F20 		ldrb	r2, [sp, #15]	@ zero_extendqisi2
 4933 0020 0095     		str	r5, [sp]
 4934 0022 054B     		ldr	r3, .L303+8
 4935 0024 0146     		mov	r1, r0
 4936 0026 2046     		mov	r0, r4
 4937              	.LVL681:
 4938 0028 FFF7FEFF 		bl	u8g2_SetupBuffer
 4939              	.LVL682:
 675:Core/u8g2/u8g2_d_setup.c **** }
 4940              		.loc 1 675 0
 4941 002c 05B0     		add	sp, sp, #20
 4942              	.LCFI227:
 4943              		.cfi_def_cfa_offset 12
 4944              		@ sp needed
 4945 002e 30BD     		pop	{r4, r5, pc}
 4946              	.LVL683:
 4947              	.L304:
 4948              		.align	2
ARM GAS  C:\Users\ASUS\AppData\Local\Temp\ccLOtXM9.s 			page 97


 4949              	.L303:
 4950 0030 00000000 		.word	u8x8_cad_ssd13xx_i2c
 4951 0034 00000000 		.word	u8x8_d_sh1107_seeed_96x96
 4952 0038 00000000 		.word	u8g2_ll_hvline_vertical_top_lsb
 4953              		.cfi_endproc
 4954              	.LFE75:
 4956              		.section	.text.u8g2_Setup_sh1107_i2c_seeed_96x96_2,"ax",%progbits
 4957              		.align	1
 4958              		.global	u8g2_Setup_sh1107_i2c_seeed_96x96_2
 4959              		.syntax unified
 4960              		.thumb
 4961              		.thumb_func
 4962              		.fpu softvfp
 4964              	u8g2_Setup_sh1107_i2c_seeed_96x96_2:
 4965              	.LFB76:
 676:Core/u8g2/u8g2_d_setup.c **** /* sh1107 2 */
 677:Core/u8g2/u8g2_d_setup.c **** void u8g2_Setup_sh1107_i2c_seeed_96x96_2(u8g2_t *u8g2, const u8g2_cb_t *rotation, u8x8_msg_cb byte_
 678:Core/u8g2/u8g2_d_setup.c **** {
 4966              		.loc 1 678 0
 4967              		.cfi_startproc
 4968              		@ args = 0, pretend = 0, frame = 8
 4969              		@ frame_needed = 0, uses_anonymous_args = 0
 4970              	.LVL684:
 4971 0000 30B5     		push	{r4, r5, lr}
 4972              	.LCFI228:
 4973              		.cfi_def_cfa_offset 12
 4974              		.cfi_offset 4, -12
 4975              		.cfi_offset 5, -8
 4976              		.cfi_offset 14, -4
 4977 0002 85B0     		sub	sp, sp, #20
 4978              	.LCFI229:
 4979              		.cfi_def_cfa_offset 32
 4980 0004 0446     		mov	r4, r0
 4981 0006 0D46     		mov	r5, r1
 679:Core/u8g2/u8g2_d_setup.c ****   uint8_t tile_buf_height;
 680:Core/u8g2/u8g2_d_setup.c ****   uint8_t *buf;
 681:Core/u8g2/u8g2_d_setup.c ****   u8g2_SetupDisplay(u8g2, u8x8_d_sh1107_seeed_96x96, u8x8_cad_ssd13xx_i2c, byte_cb, gpio_and_delay_
 4982              		.loc 1 681 0
 4983 0008 0093     		str	r3, [sp]
 4984 000a 1346     		mov	r3, r2
 4985              	.LVL685:
 4986 000c 084A     		ldr	r2, .L307
 4987              	.LVL686:
 4988 000e 0949     		ldr	r1, .L307+4
 4989              	.LVL687:
 4990 0010 FFF7FEFF 		bl	u8x8_Setup
 4991              	.LVL688:
 682:Core/u8g2/u8g2_d_setup.c ****   buf = u8g2_m_12_12_2(&tile_buf_height);
 4992              		.loc 1 682 0
 4993 0014 0DF10F00 		add	r0, sp, #15
 4994 0018 FFF7FEFF 		bl	u8g2_m_12_12_2
 4995              	.LVL689:
 683:Core/u8g2/u8g2_d_setup.c ****   u8g2_SetupBuffer(u8g2, buf, tile_buf_height, u8g2_ll_hvline_vertical_top_lsb, rotation);
 4996              		.loc 1 683 0
 4997 001c 9DF80F20 		ldrb	r2, [sp, #15]	@ zero_extendqisi2
 4998 0020 0095     		str	r5, [sp]
 4999 0022 054B     		ldr	r3, .L307+8
ARM GAS  C:\Users\ASUS\AppData\Local\Temp\ccLOtXM9.s 			page 98


 5000 0024 0146     		mov	r1, r0
 5001 0026 2046     		mov	r0, r4
 5002              	.LVL690:
 5003 0028 FFF7FEFF 		bl	u8g2_SetupBuffer
 5004              	.LVL691:
 684:Core/u8g2/u8g2_d_setup.c **** }
 5005              		.loc 1 684 0
 5006 002c 05B0     		add	sp, sp, #20
 5007              	.LCFI230:
 5008              		.cfi_def_cfa_offset 12
 5009              		@ sp needed
 5010 002e 30BD     		pop	{r4, r5, pc}
 5011              	.LVL692:
 5012              	.L308:
 5013              		.align	2
 5014              	.L307:
 5015 0030 00000000 		.word	u8x8_cad_ssd13xx_i2c
 5016 0034 00000000 		.word	u8x8_d_sh1107_seeed_96x96
 5017 0038 00000000 		.word	u8g2_ll_hvline_vertical_top_lsb
 5018              		.cfi_endproc
 5019              	.LFE76:
 5021              		.section	.text.u8g2_Setup_sh1107_i2c_seeed_96x96_f,"ax",%progbits
 5022              		.align	1
 5023              		.global	u8g2_Setup_sh1107_i2c_seeed_96x96_f
 5024              		.syntax unified
 5025              		.thumb
 5026              		.thumb_func
 5027              		.fpu softvfp
 5029              	u8g2_Setup_sh1107_i2c_seeed_96x96_f:
 5030              	.LFB77:
 685:Core/u8g2/u8g2_d_setup.c **** /* sh1107 f */
 686:Core/u8g2/u8g2_d_setup.c **** void u8g2_Setup_sh1107_i2c_seeed_96x96_f(u8g2_t *u8g2, const u8g2_cb_t *rotation, u8x8_msg_cb byte_
 687:Core/u8g2/u8g2_d_setup.c **** {
 5031              		.loc 1 687 0
 5032              		.cfi_startproc
 5033              		@ args = 0, pretend = 0, frame = 8
 5034              		@ frame_needed = 0, uses_anonymous_args = 0
 5035              	.LVL693:
 5036 0000 30B5     		push	{r4, r5, lr}
 5037              	.LCFI231:
 5038              		.cfi_def_cfa_offset 12
 5039              		.cfi_offset 4, -12
 5040              		.cfi_offset 5, -8
 5041              		.cfi_offset 14, -4
 5042 0002 85B0     		sub	sp, sp, #20
 5043              	.LCFI232:
 5044              		.cfi_def_cfa_offset 32
 5045 0004 0446     		mov	r4, r0
 5046 0006 0D46     		mov	r5, r1
 688:Core/u8g2/u8g2_d_setup.c ****   uint8_t tile_buf_height;
 689:Core/u8g2/u8g2_d_setup.c ****   uint8_t *buf;
 690:Core/u8g2/u8g2_d_setup.c ****   u8g2_SetupDisplay(u8g2, u8x8_d_sh1107_seeed_96x96, u8x8_cad_ssd13xx_i2c, byte_cb, gpio_and_delay_
 5047              		.loc 1 690 0
 5048 0008 0093     		str	r3, [sp]
 5049 000a 1346     		mov	r3, r2
 5050              	.LVL694:
 5051 000c 084A     		ldr	r2, .L311
ARM GAS  C:\Users\ASUS\AppData\Local\Temp\ccLOtXM9.s 			page 99


 5052              	.LVL695:
 5053 000e 0949     		ldr	r1, .L311+4
 5054              	.LVL696:
 5055 0010 FFF7FEFF 		bl	u8x8_Setup
 5056              	.LVL697:
 691:Core/u8g2/u8g2_d_setup.c ****   buf = u8g2_m_12_12_f(&tile_buf_height);
 5057              		.loc 1 691 0
 5058 0014 0DF10F00 		add	r0, sp, #15
 5059 0018 FFF7FEFF 		bl	u8g2_m_12_12_f
 5060              	.LVL698:
 692:Core/u8g2/u8g2_d_setup.c ****   u8g2_SetupBuffer(u8g2, buf, tile_buf_height, u8g2_ll_hvline_vertical_top_lsb, rotation);
 5061              		.loc 1 692 0
 5062 001c 9DF80F20 		ldrb	r2, [sp, #15]	@ zero_extendqisi2
 5063 0020 0095     		str	r5, [sp]
 5064 0022 054B     		ldr	r3, .L311+8
 5065 0024 0146     		mov	r1, r0
 5066 0026 2046     		mov	r0, r4
 5067              	.LVL699:
 5068 0028 FFF7FEFF 		bl	u8g2_SetupBuffer
 5069              	.LVL700:
 693:Core/u8g2/u8g2_d_setup.c **** }
 5070              		.loc 1 693 0
 5071 002c 05B0     		add	sp, sp, #20
 5072              	.LCFI233:
 5073              		.cfi_def_cfa_offset 12
 5074              		@ sp needed
 5075 002e 30BD     		pop	{r4, r5, pc}
 5076              	.LVL701:
 5077              	.L312:
 5078              		.align	2
 5079              	.L311:
 5080 0030 00000000 		.word	u8x8_cad_ssd13xx_i2c
 5081 0034 00000000 		.word	u8x8_d_sh1107_seeed_96x96
 5082 0038 00000000 		.word	u8g2_ll_hvline_vertical_top_lsb
 5083              		.cfi_endproc
 5084              	.LFE77:
 5086              		.section	.text.u8g2_Setup_sh1107_128x128_1,"ax",%progbits
 5087              		.align	1
 5088              		.global	u8g2_Setup_sh1107_128x128_1
 5089              		.syntax unified
 5090              		.thumb
 5091              		.thumb_func
 5092              		.fpu softvfp
 5094              	u8g2_Setup_sh1107_128x128_1:
 5095              	.LFB78:
 694:Core/u8g2/u8g2_d_setup.c **** /* sh1107 */
 695:Core/u8g2/u8g2_d_setup.c **** /* sh1107 1 */
 696:Core/u8g2/u8g2_d_setup.c **** void u8g2_Setup_sh1107_128x128_1(u8g2_t *u8g2, const u8g2_cb_t *rotation, u8x8_msg_cb byte_cb, u8x8
 697:Core/u8g2/u8g2_d_setup.c **** {
 5096              		.loc 1 697 0
 5097              		.cfi_startproc
 5098              		@ args = 0, pretend = 0, frame = 8
 5099              		@ frame_needed = 0, uses_anonymous_args = 0
 5100              	.LVL702:
 5101 0000 30B5     		push	{r4, r5, lr}
 5102              	.LCFI234:
 5103              		.cfi_def_cfa_offset 12
ARM GAS  C:\Users\ASUS\AppData\Local\Temp\ccLOtXM9.s 			page 100


 5104              		.cfi_offset 4, -12
 5105              		.cfi_offset 5, -8
 5106              		.cfi_offset 14, -4
 5107 0002 85B0     		sub	sp, sp, #20
 5108              	.LCFI235:
 5109              		.cfi_def_cfa_offset 32
 5110 0004 0446     		mov	r4, r0
 5111 0006 0D46     		mov	r5, r1
 698:Core/u8g2/u8g2_d_setup.c ****   uint8_t tile_buf_height;
 699:Core/u8g2/u8g2_d_setup.c ****   uint8_t *buf;
 700:Core/u8g2/u8g2_d_setup.c ****   u8g2_SetupDisplay(u8g2, u8x8_d_sh1107_128x128, u8x8_cad_001, byte_cb, gpio_and_delay_cb);
 5112              		.loc 1 700 0
 5113 0008 0093     		str	r3, [sp]
 5114 000a 1346     		mov	r3, r2
 5115              	.LVL703:
 5116 000c 084A     		ldr	r2, .L315
 5117              	.LVL704:
 5118 000e 0949     		ldr	r1, .L315+4
 5119              	.LVL705:
 5120 0010 FFF7FEFF 		bl	u8x8_Setup
 5121              	.LVL706:
 701:Core/u8g2/u8g2_d_setup.c ****   buf = u8g2_m_16_16_1(&tile_buf_height);
 5122              		.loc 1 701 0
 5123 0014 0DF10F00 		add	r0, sp, #15
 5124 0018 FFF7FEFF 		bl	u8g2_m_16_16_1
 5125              	.LVL707:
 702:Core/u8g2/u8g2_d_setup.c ****   u8g2_SetupBuffer(u8g2, buf, tile_buf_height, u8g2_ll_hvline_vertical_top_lsb, rotation);
 5126              		.loc 1 702 0
 5127 001c 9DF80F20 		ldrb	r2, [sp, #15]	@ zero_extendqisi2
 5128 0020 0095     		str	r5, [sp]
 5129 0022 054B     		ldr	r3, .L315+8
 5130 0024 0146     		mov	r1, r0
 5131 0026 2046     		mov	r0, r4
 5132              	.LVL708:
 5133 0028 FFF7FEFF 		bl	u8g2_SetupBuffer
 5134              	.LVL709:
 703:Core/u8g2/u8g2_d_setup.c **** }
 5135              		.loc 1 703 0
 5136 002c 05B0     		add	sp, sp, #20
 5137              	.LCFI236:
 5138              		.cfi_def_cfa_offset 12
 5139              		@ sp needed
 5140 002e 30BD     		pop	{r4, r5, pc}
 5141              	.LVL710:
 5142              	.L316:
 5143              		.align	2
 5144              	.L315:
 5145 0030 00000000 		.word	u8x8_cad_001
 5146 0034 00000000 		.word	u8x8_d_sh1107_128x128
 5147 0038 00000000 		.word	u8g2_ll_hvline_vertical_top_lsb
 5148              		.cfi_endproc
 5149              	.LFE78:
 5151              		.section	.text.u8g2_Setup_sh1107_128x128_2,"ax",%progbits
 5152              		.align	1
 5153              		.global	u8g2_Setup_sh1107_128x128_2
 5154              		.syntax unified
 5155              		.thumb
ARM GAS  C:\Users\ASUS\AppData\Local\Temp\ccLOtXM9.s 			page 101


 5156              		.thumb_func
 5157              		.fpu softvfp
 5159              	u8g2_Setup_sh1107_128x128_2:
 5160              	.LFB79:
