ARM GAS  C:\Users\ASUS\AppData\Local\Temp\ccnpu2Hi.s 			page 1


   1              		.cpu cortex-m3
   2              		.eabi_attribute 20, 1
   3              		.eabi_attribute 21, 1
   4              		.eabi_attribute 23, 3
   5              		.eabi_attribute 24, 1
   6              		.eabi_attribute 25, 1
   7              		.eabi_attribute 26, 1
   8              		.eabi_attribute 30, 1
   9              		.eabi_attribute 34, 1
  10              		.eabi_attribute 18, 4
  11              		.file	"u8g2_font.c"
  12              		.text
  13              	.Ltext0:
  14              		.cfi_sections	.debug_frame
  15              		.section	.text.u8g2_font_get_byte,"ax",%progbits
  16              		.align	1
  17              		.syntax unified
  18              		.thumb
  19              		.thumb_func
  20              		.fpu softvfp
  22              	u8g2_font_get_byte:
  23              	.LFB0:
  24              		.file 1 "Core/u8g2/u8g2_font.c"
   1:Core/u8g2/u8g2_font.c **** /*
   2:Core/u8g2/u8g2_font.c **** 
   3:Core/u8g2/u8g2_font.c ****   u8g2_font.c
   4:Core/u8g2/u8g2_font.c **** 
   5:Core/u8g2/u8g2_font.c ****   Universal 8bit Graphics Library (https://github.com/olikraus/u8g2/)
   6:Core/u8g2/u8g2_font.c **** 
   7:Core/u8g2/u8g2_font.c ****   Copyright (c) 2016, olikraus@gmail.com
   8:Core/u8g2/u8g2_font.c ****   All rights reserved.
   9:Core/u8g2/u8g2_font.c **** 
  10:Core/u8g2/u8g2_font.c ****   Redistribution and use in source and binary forms, with or without modification, 
  11:Core/u8g2/u8g2_font.c ****   are permitted provided that the following conditions are met:
  12:Core/u8g2/u8g2_font.c **** 
  13:Core/u8g2/u8g2_font.c ****   * Redistributions of source code must retain the above copyright notice, this list 
  14:Core/u8g2/u8g2_font.c ****     of conditions and the following disclaimer.
  15:Core/u8g2/u8g2_font.c ****     
  16:Core/u8g2/u8g2_font.c ****   * Redistributions in binary form must reproduce the above copyright notice, this 
  17:Core/u8g2/u8g2_font.c ****     list of conditions and the following disclaimer in the documentation and/or other 
  18:Core/u8g2/u8g2_font.c ****     materials provided with the distribution.
  19:Core/u8g2/u8g2_font.c **** 
  20:Core/u8g2/u8g2_font.c ****   THIS SOFTWARE IS PROVIDED BY THE COPYRIGHT HOLDERS AND 
  21:Core/u8g2/u8g2_font.c ****   CONTRIBUTORS "AS IS" AND ANY EXPRESS OR IMPLIED WARRANTIES, 
  22:Core/u8g2/u8g2_font.c ****   INCLUDING, BUT NOT LIMITED TO, THE IMPLIED WARRANTIES OF 
  23:Core/u8g2/u8g2_font.c ****   MERCHANTABILITY AND FITNESS FOR A PARTICULAR PURPOSE ARE 
  24:Core/u8g2/u8g2_font.c ****   DISCLAIMED. IN NO EVENT SHALL THE COPYRIGHT HOLDER OR 
  25:Core/u8g2/u8g2_font.c ****   CONTRIBUTORS BE LIABLE FOR ANY DIRECT, INDIRECT, INCIDENTAL, 
  26:Core/u8g2/u8g2_font.c ****   SPECIAL, EXEMPLARY, OR CONSEQUENTIAL DAMAGES (INCLUDING, BUT 
  27:Core/u8g2/u8g2_font.c ****   NOT LIMITED TO, PROCUREMENT OF SUBSTITUTE GOODS OR SERVICES; 
  28:Core/u8g2/u8g2_font.c ****   LOSS OF USE, DATA, OR PROFITS; OR BUSINESS INTERRUPTION) HOWEVER 
  29:Core/u8g2/u8g2_font.c ****   CAUSED AND ON ANY THEORY OF LIABILITY, WHETHER IN CONTRACT, 
  30:Core/u8g2/u8g2_font.c ****   STRICT LIABILITY, OR TORT (INCLUDING NEGLIGENCE OR OTHERWISE) 
  31:Core/u8g2/u8g2_font.c ****   ARISING IN ANY WAY OUT OF THE USE OF THIS SOFTWARE, EVEN IF 
  32:Core/u8g2/u8g2_font.c ****   ADVISED OF THE POSSIBILITY OF SUCH DAMAGE.  
  33:Core/u8g2/u8g2_font.c **** 
  34:Core/u8g2/u8g2_font.c **** */
ARM GAS  C:\Users\ASUS\AppData\Local\Temp\ccnpu2Hi.s 			page 2


  35:Core/u8g2/u8g2_font.c **** 
  36:Core/u8g2/u8g2_font.c **** #include "../u8g2/u8g2.h"
  37:Core/u8g2/u8g2_font.c **** 
  38:Core/u8g2/u8g2_font.c **** /* size of the font data structure, there is no struct or class... */
  39:Core/u8g2/u8g2_font.c **** /* this is the size for the new font format */
  40:Core/u8g2/u8g2_font.c **** #define U8G2_FONT_DATA_STRUCT_SIZE 23
  41:Core/u8g2/u8g2_font.c **** 
  42:Core/u8g2/u8g2_font.c **** /*
  43:Core/u8g2/u8g2_font.c ****   font data:
  44:Core/u8g2/u8g2_font.c **** 
  45:Core/u8g2/u8g2_font.c ****   offset	bytes	description
  46:Core/u8g2/u8g2_font.c ****   0		1		glyph_cnt		number of glyphs
  47:Core/u8g2/u8g2_font.c ****   1		1		bbx_mode	0: proportional, 1: common height, 2: monospace, 3: multiple of 8
  48:Core/u8g2/u8g2_font.c ****   2		1		bits_per_0	glyph rle parameter
  49:Core/u8g2/u8g2_font.c ****   3		1		bits_per_1	glyph rle parameter
  50:Core/u8g2/u8g2_font.c **** 
  51:Core/u8g2/u8g2_font.c ****   4		1		bits_per_char_width		glyph rle parameter
  52:Core/u8g2/u8g2_font.c ****   5		1		bits_per_char_height	glyph rle parameter
  53:Core/u8g2/u8g2_font.c ****   6		1		bits_per_char_x		glyph rle parameter
  54:Core/u8g2/u8g2_font.c ****   7		1		bits_per_char_y		glyph rle parameter
  55:Core/u8g2/u8g2_font.c ****   8		1		bits_per_delta_x		glyph rle parameter
  56:Core/u8g2/u8g2_font.c **** 
  57:Core/u8g2/u8g2_font.c ****   9		1		max_char_width
  58:Core/u8g2/u8g2_font.c ****   10		1		max_char_height
  59:Core/u8g2/u8g2_font.c ****   11		1		x offset
  60:Core/u8g2/u8g2_font.c ****   12		1		y offset (descent)
  61:Core/u8g2/u8g2_font.c ****   
  62:Core/u8g2/u8g2_font.c ****   13		1		ascent (capital A)
  63:Core/u8g2/u8g2_font.c ****   14		1		descent (lower g)
  64:Core/u8g2/u8g2_font.c ****   15		1		ascent '('
  65:Core/u8g2/u8g2_font.c ****   16		1		descent ')'
  66:Core/u8g2/u8g2_font.c ****   
  67:Core/u8g2/u8g2_font.c ****   17		1		start pos 'A' high byte
  68:Core/u8g2/u8g2_font.c ****   18		1		start pos 'A' low byte
  69:Core/u8g2/u8g2_font.c **** 
  70:Core/u8g2/u8g2_font.c ****   19		1		start pos 'a' high byte
  71:Core/u8g2/u8g2_font.c ****   20		1		start pos 'a' low byte
  72:Core/u8g2/u8g2_font.c **** 
  73:Core/u8g2/u8g2_font.c ****   21		1		start pos unicode high byte
  74:Core/u8g2/u8g2_font.c ****   22		1		start pos unicode low byte
  75:Core/u8g2/u8g2_font.c **** 
  76:Core/u8g2/u8g2_font.c ****   Font build mode, 0: proportional, 1: common height, 2: monospace, 3: multiple of 8
  77:Core/u8g2/u8g2_font.c **** 
  78:Core/u8g2/u8g2_font.c ****   Font build mode 0:		
  79:Core/u8g2/u8g2_font.c ****     - "t"
  80:Core/u8g2/u8g2_font.c ****     - Ref height mode: U8G2_FONT_HEIGHT_MODE_TEXT, U8G2_FONT_HEIGHT_MODE_XTEXT or U8G2_FONT_HEIGHT_
  81:Core/u8g2/u8g2_font.c ****     - use in transparent mode only (does not look good in solid mode)
  82:Core/u8g2/u8g2_font.c ****     - most compact format
  83:Core/u8g2/u8g2_font.c ****     - different font heights possible
  84:Core/u8g2/u8g2_font.c ****     
  85:Core/u8g2/u8g2_font.c ****   Font build mode 1:		
  86:Core/u8g2/u8g2_font.c ****     - "h"
  87:Core/u8g2/u8g2_font.c ****     - Ref height mode: U8G2_FONT_HEIGHT_MODE_ALL
  88:Core/u8g2/u8g2_font.c ****     - transparent or solid mode
  89:Core/u8g2/u8g2_font.c ****     - The height of the glyphs depend on the largest glyph in the font. This means font height depe
  90:Core/u8g2/u8g2_font.c **** 
  91:Core/u8g2/u8g2_font.c **** */
ARM GAS  C:\Users\ASUS\AppData\Local\Temp\ccnpu2Hi.s 			page 3


  92:Core/u8g2/u8g2_font.c **** 
  93:Core/u8g2/u8g2_font.c **** /* use case: What is the width and the height of the minimal box into which string s fints? */
  94:Core/u8g2/u8g2_font.c **** void u8g2_font_GetStrSize(const void *font, const char *s, u8g2_uint_t *width, u8g2_uint_t *height)
  95:Core/u8g2/u8g2_font.c **** void u8g2_font_GetStrSizeP(const void *font, const char *s, u8g2_uint_t *width, u8g2_uint_t *height
  96:Core/u8g2/u8g2_font.c **** 
  97:Core/u8g2/u8g2_font.c **** /* use case: lower left edge of a minimal box is known, what is the correct x, y position for the s
  98:Core/u8g2/u8g2_font.c **** void u8g2_font_AdjustXYToDraw(const void *font, const char *s, u8g2_uint_t *x, u8g2_uint_t *y);
  99:Core/u8g2/u8g2_font.c **** void u8g2_font_AdjustXYToDrawP(const void *font, const char *s, u8g2_uint_t *x, u8g2_uint_t *y);
 100:Core/u8g2/u8g2_font.c **** 
 101:Core/u8g2/u8g2_font.c **** /* use case: Baseline origin known, return minimal box */
 102:Core/u8g2/u8g2_font.c **** void u8g2_font_GetStrMinBox(u8g2_t *u8g2, const void *font, const char *s, u8g2_uint_t *x, u8g2_uin
 103:Core/u8g2/u8g2_font.c **** 
 104:Core/u8g2/u8g2_font.c **** /* procedures */
 105:Core/u8g2/u8g2_font.c **** 
 106:Core/u8g2/u8g2_font.c **** /*========================================================================*/
 107:Core/u8g2/u8g2_font.c **** /* low level byte and word access */
 108:Core/u8g2/u8g2_font.c **** 
 109:Core/u8g2/u8g2_font.c **** /* removed NOINLINE, because it leads to smaller code, might also be faster */
 110:Core/u8g2/u8g2_font.c **** //static uint8_t u8g2_font_get_byte(const uint8_t *font, uint8_t offset) U8G2_NOINLINE;
 111:Core/u8g2/u8g2_font.c **** static uint8_t u8g2_font_get_byte(const uint8_t *font, uint8_t offset)
 112:Core/u8g2/u8g2_font.c **** {
  25              		.loc 1 112 0
  26              		.cfi_startproc
  27              		@ args = 0, pretend = 0, frame = 0
  28              		@ frame_needed = 0, uses_anonymous_args = 0
  29              		@ link register save eliminated.
  30              	.LVL0:
 113:Core/u8g2/u8g2_font.c ****   font += offset;
 114:Core/u8g2/u8g2_font.c ****   return u8x8_pgm_read( font );  
 115:Core/u8g2/u8g2_font.c **** }
  31              		.loc 1 115 0
  32 0000 405C     		ldrb	r0, [r0, r1]	@ zero_extendqisi2
  33              	.LVL1:
  34 0002 7047     		bx	lr
  35              		.cfi_endproc
  36              	.LFE0:
  38              		.section	.text.u8g2_font_get_word,"ax",%progbits
  39              		.align	1
  40              		.syntax unified
  41              		.thumb
  42              		.thumb_func
  43              		.fpu softvfp
  45              	u8g2_font_get_word:
  46              	.LFB1:
 116:Core/u8g2/u8g2_font.c **** 
 117:Core/u8g2/u8g2_font.c **** static uint16_t u8g2_font_get_word(const uint8_t *font, uint8_t offset) U8G2_NOINLINE; 
 118:Core/u8g2/u8g2_font.c **** static uint16_t u8g2_font_get_word(const uint8_t *font, uint8_t offset)
 119:Core/u8g2/u8g2_font.c **** {
  47              		.loc 1 119 0
  48              		.cfi_startproc
  49              		@ args = 0, pretend = 0, frame = 0
  50              		@ frame_needed = 0, uses_anonymous_args = 0
  51              		@ link register save eliminated.
  52              	.LVL2:
 120:Core/u8g2/u8g2_font.c ****     uint16_t pos;
 121:Core/u8g2/u8g2_font.c ****     font += offset;
  53              		.loc 1 121 0
ARM GAS  C:\Users\ASUS\AppData\Local\Temp\ccnpu2Hi.s 			page 4


  54 0000 4218     		adds	r2, r0, r1
  55              	.LVL3:
 122:Core/u8g2/u8g2_font.c ****     pos = u8x8_pgm_read( font );
  56              		.loc 1 122 0
  57 0002 435C     		ldrb	r3, [r0, r1]	@ zero_extendqisi2
  58              	.LVL4:
 123:Core/u8g2/u8g2_font.c ****     font++;
 124:Core/u8g2/u8g2_font.c ****     pos <<= 8;
 125:Core/u8g2/u8g2_font.c ****     pos += u8x8_pgm_read( font);
  59              		.loc 1 125 0
  60 0004 5078     		ldrb	r0, [r2, #1]	@ zero_extendqisi2
  61 0006 00EB0320 		add	r0, r0, r3, lsl #8
  62              	.LVL5:
 126:Core/u8g2/u8g2_font.c ****     return pos;
 127:Core/u8g2/u8g2_font.c **** }
  63              		.loc 1 127 0
  64 000a 80B2     		uxth	r0, r0
  65 000c 7047     		bx	lr
  66              		.cfi_endproc
  67              	.LFE1:
  69              		.section	.text.u8g2_add_vector_y,"ax",%progbits
  70              		.align	1
  71              		.syntax unified
  72              		.thumb
  73              		.thumb_func
  74              		.fpu softvfp
  76              	u8g2_add_vector_y:
  77              	.LFB11:
 128:Core/u8g2/u8g2_font.c **** 
 129:Core/u8g2/u8g2_font.c **** /*========================================================================*/
 130:Core/u8g2/u8g2_font.c **** /* new font format */
 131:Core/u8g2/u8g2_font.c **** void u8g2_read_font_info(u8g2_font_info_t *font_info, const uint8_t *font)
 132:Core/u8g2/u8g2_font.c **** {
 133:Core/u8g2/u8g2_font.c ****   /* offset 0 */
 134:Core/u8g2/u8g2_font.c ****   font_info->glyph_cnt = u8g2_font_get_byte(font, 0);
 135:Core/u8g2/u8g2_font.c ****   font_info->bbx_mode = u8g2_font_get_byte(font, 1);
 136:Core/u8g2/u8g2_font.c ****   font_info->bits_per_0 = u8g2_font_get_byte(font, 2);
 137:Core/u8g2/u8g2_font.c ****   font_info->bits_per_1 = u8g2_font_get_byte(font, 3);
 138:Core/u8g2/u8g2_font.c ****   
 139:Core/u8g2/u8g2_font.c ****   /* offset 4 */
 140:Core/u8g2/u8g2_font.c ****   font_info->bits_per_char_width = u8g2_font_get_byte(font, 4);
 141:Core/u8g2/u8g2_font.c ****   font_info->bits_per_char_height = u8g2_font_get_byte(font, 5);
 142:Core/u8g2/u8g2_font.c ****   font_info->bits_per_char_x = u8g2_font_get_byte(font, 6);
 143:Core/u8g2/u8g2_font.c ****   font_info->bits_per_char_y = u8g2_font_get_byte(font, 7);
 144:Core/u8g2/u8g2_font.c ****   font_info->bits_per_delta_x = u8g2_font_get_byte(font, 8);
 145:Core/u8g2/u8g2_font.c ****   
 146:Core/u8g2/u8g2_font.c ****   /* offset 9 */
 147:Core/u8g2/u8g2_font.c ****   font_info->max_char_width = u8g2_font_get_byte(font, 9);
 148:Core/u8g2/u8g2_font.c ****   font_info->max_char_height = u8g2_font_get_byte(font, 10);
 149:Core/u8g2/u8g2_font.c ****   font_info->x_offset = u8g2_font_get_byte(font, 11);
 150:Core/u8g2/u8g2_font.c ****   font_info->y_offset = u8g2_font_get_byte(font, 12);
 151:Core/u8g2/u8g2_font.c ****   
 152:Core/u8g2/u8g2_font.c ****   /* offset 13 */
 153:Core/u8g2/u8g2_font.c ****   font_info->ascent_A = u8g2_font_get_byte(font, 13);
 154:Core/u8g2/u8g2_font.c ****   font_info->descent_g = u8g2_font_get_byte(font, 14);
 155:Core/u8g2/u8g2_font.c ****   font_info->ascent_para = u8g2_font_get_byte(font, 15);
 156:Core/u8g2/u8g2_font.c ****   font_info->descent_para = u8g2_font_get_byte(font, 16);
ARM GAS  C:\Users\ASUS\AppData\Local\Temp\ccnpu2Hi.s 			page 5


 157:Core/u8g2/u8g2_font.c ****   
 158:Core/u8g2/u8g2_font.c ****   /* offset 17 */
 159:Core/u8g2/u8g2_font.c ****   font_info->start_pos_upper_A = u8g2_font_get_word(font, 17);
 160:Core/u8g2/u8g2_font.c ****   font_info->start_pos_lower_a = u8g2_font_get_word(font, 19); 
 161:Core/u8g2/u8g2_font.c ****   
 162:Core/u8g2/u8g2_font.c ****   /* offset 21 */
 163:Core/u8g2/u8g2_font.c **** #ifdef U8G2_WITH_UNICODE
 164:Core/u8g2/u8g2_font.c ****   font_info->start_pos_unicode = u8g2_font_get_word(font, 21); 
 165:Core/u8g2/u8g2_font.c **** #endif
 166:Core/u8g2/u8g2_font.c **** }
 167:Core/u8g2/u8g2_font.c **** 
 168:Core/u8g2/u8g2_font.c **** 
 169:Core/u8g2/u8g2_font.c **** /* calculate the overall length of the font, only used to create the picture for the google wiki */
 170:Core/u8g2/u8g2_font.c **** size_t u8g2_GetFontSize(const uint8_t *font_arg)
 171:Core/u8g2/u8g2_font.c **** {
 172:Core/u8g2/u8g2_font.c ****   uint16_t e;
 173:Core/u8g2/u8g2_font.c ****   const uint8_t *font = font_arg;
 174:Core/u8g2/u8g2_font.c ****   font += U8G2_FONT_DATA_STRUCT_SIZE;
 175:Core/u8g2/u8g2_font.c ****   
 176:Core/u8g2/u8g2_font.c ****   for(;;)
 177:Core/u8g2/u8g2_font.c ****   {
 178:Core/u8g2/u8g2_font.c ****     if ( u8x8_pgm_read( font + 1 ) == 0 )
 179:Core/u8g2/u8g2_font.c ****       break;
 180:Core/u8g2/u8g2_font.c ****     font += u8x8_pgm_read( font + 1 );
 181:Core/u8g2/u8g2_font.c ****   }
 182:Core/u8g2/u8g2_font.c ****   
 183:Core/u8g2/u8g2_font.c ****   /* continue with unicode section */
 184:Core/u8g2/u8g2_font.c ****   font += 2;
 185:Core/u8g2/u8g2_font.c **** 
 186:Core/u8g2/u8g2_font.c ****   /* skip unicode lookup table */
 187:Core/u8g2/u8g2_font.c ****   font += u8g2_font_get_word(font, 0);
 188:Core/u8g2/u8g2_font.c ****   
 189:Core/u8g2/u8g2_font.c ****   for(;;)
 190:Core/u8g2/u8g2_font.c ****   {
 191:Core/u8g2/u8g2_font.c ****     e = u8x8_pgm_read( font );
 192:Core/u8g2/u8g2_font.c ****     e <<= 8;
 193:Core/u8g2/u8g2_font.c ****     e |= u8x8_pgm_read( font + 1 );
 194:Core/u8g2/u8g2_font.c ****     if ( e == 0 )
 195:Core/u8g2/u8g2_font.c ****       break;
 196:Core/u8g2/u8g2_font.c ****     font += u8x8_pgm_read( font + 2 );    
 197:Core/u8g2/u8g2_font.c ****   }
 198:Core/u8g2/u8g2_font.c ****   
 199:Core/u8g2/u8g2_font.c ****   return (font - font_arg) + 2;
 200:Core/u8g2/u8g2_font.c **** }
 201:Core/u8g2/u8g2_font.c **** 
 202:Core/u8g2/u8g2_font.c **** /*========================================================================*/
 203:Core/u8g2/u8g2_font.c **** /* u8g2 interface, font access */
 204:Core/u8g2/u8g2_font.c **** 
 205:Core/u8g2/u8g2_font.c **** uint8_t u8g2_GetFontBBXWidth(u8g2_t *u8g2)
 206:Core/u8g2/u8g2_font.c **** {
 207:Core/u8g2/u8g2_font.c ****   return u8g2->font_info.max_char_width;		/* new font info structure */
 208:Core/u8g2/u8g2_font.c **** }
 209:Core/u8g2/u8g2_font.c **** 
 210:Core/u8g2/u8g2_font.c **** uint8_t u8g2_GetFontBBXHeight(u8g2_t *u8g2)
 211:Core/u8g2/u8g2_font.c **** {
 212:Core/u8g2/u8g2_font.c ****   return u8g2->font_info.max_char_height;		/* new font info structure */
 213:Core/u8g2/u8g2_font.c **** }
ARM GAS  C:\Users\ASUS\AppData\Local\Temp\ccnpu2Hi.s 			page 6


 214:Core/u8g2/u8g2_font.c **** 
 215:Core/u8g2/u8g2_font.c **** int8_t u8g2_GetFontBBXOffX(u8g2_t *u8g2) U8G2_NOINLINE;
 216:Core/u8g2/u8g2_font.c **** int8_t u8g2_GetFontBBXOffX(u8g2_t *u8g2)
 217:Core/u8g2/u8g2_font.c **** {
 218:Core/u8g2/u8g2_font.c ****   return u8g2->font_info.x_offset;		/* new font info structure */
 219:Core/u8g2/u8g2_font.c **** }
 220:Core/u8g2/u8g2_font.c **** 
 221:Core/u8g2/u8g2_font.c **** int8_t u8g2_GetFontBBXOffY(u8g2_t *u8g2) U8G2_NOINLINE;
 222:Core/u8g2/u8g2_font.c **** int8_t u8g2_GetFontBBXOffY(u8g2_t *u8g2)
 223:Core/u8g2/u8g2_font.c **** {
 224:Core/u8g2/u8g2_font.c ****   return u8g2->font_info.y_offset;		/* new font info structure */
 225:Core/u8g2/u8g2_font.c **** }
 226:Core/u8g2/u8g2_font.c **** 
 227:Core/u8g2/u8g2_font.c **** uint8_t u8g2_GetFontCapitalAHeight(u8g2_t *u8g2) U8G2_NOINLINE; 
 228:Core/u8g2/u8g2_font.c **** uint8_t u8g2_GetFontCapitalAHeight(u8g2_t *u8g2)
 229:Core/u8g2/u8g2_font.c **** {
 230:Core/u8g2/u8g2_font.c ****   return u8g2->font_info.ascent_A;		/* new font info structure */
 231:Core/u8g2/u8g2_font.c **** }
 232:Core/u8g2/u8g2_font.c **** 
 233:Core/u8g2/u8g2_font.c **** /*========================================================================*/
 234:Core/u8g2/u8g2_font.c **** /* glyph handling */
 235:Core/u8g2/u8g2_font.c **** 
 236:Core/u8g2/u8g2_font.c **** /* optimized */
 237:Core/u8g2/u8g2_font.c **** uint8_t u8g2_font_decode_get_unsigned_bits(u8g2_font_decode_t *f, uint8_t cnt) 
 238:Core/u8g2/u8g2_font.c **** {
 239:Core/u8g2/u8g2_font.c ****   uint8_t val;
 240:Core/u8g2/u8g2_font.c ****   uint8_t bit_pos = f->decode_bit_pos;
 241:Core/u8g2/u8g2_font.c ****   uint8_t bit_pos_plus_cnt;
 242:Core/u8g2/u8g2_font.c ****   
 243:Core/u8g2/u8g2_font.c ****   //val = *(f->decode_ptr);
 244:Core/u8g2/u8g2_font.c ****   val = u8x8_pgm_read( f->decode_ptr );  
 245:Core/u8g2/u8g2_font.c ****   
 246:Core/u8g2/u8g2_font.c ****   val >>= bit_pos;
 247:Core/u8g2/u8g2_font.c ****   bit_pos_plus_cnt = bit_pos;
 248:Core/u8g2/u8g2_font.c ****   bit_pos_plus_cnt += cnt;
 249:Core/u8g2/u8g2_font.c ****   if ( bit_pos_plus_cnt >= 8 )
 250:Core/u8g2/u8g2_font.c ****   {
 251:Core/u8g2/u8g2_font.c ****     uint8_t s = 8;
 252:Core/u8g2/u8g2_font.c ****     s -= bit_pos;
 253:Core/u8g2/u8g2_font.c ****     f->decode_ptr++;
 254:Core/u8g2/u8g2_font.c ****     //val |= *(f->decode_ptr) << (8-bit_pos);
 255:Core/u8g2/u8g2_font.c ****     val |= u8x8_pgm_read( f->decode_ptr ) << (s);
 256:Core/u8g2/u8g2_font.c ****     //bit_pos -= 8;
 257:Core/u8g2/u8g2_font.c ****     bit_pos_plus_cnt -= 8;
 258:Core/u8g2/u8g2_font.c ****   }
 259:Core/u8g2/u8g2_font.c ****   val &= (1U<<cnt)-1;
 260:Core/u8g2/u8g2_font.c ****   //bit_pos += cnt;
 261:Core/u8g2/u8g2_font.c ****   
 262:Core/u8g2/u8g2_font.c ****   f->decode_bit_pos = bit_pos_plus_cnt;
 263:Core/u8g2/u8g2_font.c ****   return val;
 264:Core/u8g2/u8g2_font.c **** }
 265:Core/u8g2/u8g2_font.c **** 
 266:Core/u8g2/u8g2_font.c **** 
 267:Core/u8g2/u8g2_font.c **** /*
 268:Core/u8g2/u8g2_font.c ****     2 bit --> cnt = 2
 269:Core/u8g2/u8g2_font.c ****       -2,-1,0. 1
 270:Core/u8g2/u8g2_font.c **** 
ARM GAS  C:\Users\ASUS\AppData\Local\Temp\ccnpu2Hi.s 			page 7


 271:Core/u8g2/u8g2_font.c ****     3 bit --> cnt = 3
 272:Core/u8g2/u8g2_font.c ****       -2,-1,0. 1
 273:Core/u8g2/u8g2_font.c ****       -4,-3,-2,-1,0,1,2,3
 274:Core/u8g2/u8g2_font.c **** 
 275:Core/u8g2/u8g2_font.c ****       if ( x < 0 )
 276:Core/u8g2/u8g2_font.c **** 	r = bits(x-1)+1;
 277:Core/u8g2/u8g2_font.c ****     else
 278:Core/u8g2/u8g2_font.c **** 	r = bits(x)+1;
 279:Core/u8g2/u8g2_font.c **** 
 280:Core/u8g2/u8g2_font.c **** */
 281:Core/u8g2/u8g2_font.c **** /* optimized */
 282:Core/u8g2/u8g2_font.c **** int8_t u8g2_font_decode_get_signed_bits(u8g2_font_decode_t *f, uint8_t cnt)
 283:Core/u8g2/u8g2_font.c **** {
 284:Core/u8g2/u8g2_font.c ****   int8_t v, d;
 285:Core/u8g2/u8g2_font.c ****   v = (int8_t)u8g2_font_decode_get_unsigned_bits(f, cnt);
 286:Core/u8g2/u8g2_font.c ****   d = 1;
 287:Core/u8g2/u8g2_font.c ****   cnt--;
 288:Core/u8g2/u8g2_font.c ****   d <<= cnt;
 289:Core/u8g2/u8g2_font.c ****   v -= d;
 290:Core/u8g2/u8g2_font.c ****   return v;
 291:Core/u8g2/u8g2_font.c ****   //return (int8_t)u8g2_font_decode_get_unsigned_bits(f, cnt) - ((1<<cnt)>>1);
 292:Core/u8g2/u8g2_font.c **** }
 293:Core/u8g2/u8g2_font.c **** 
 294:Core/u8g2/u8g2_font.c **** 
 295:Core/u8g2/u8g2_font.c **** #ifdef U8G2_WITH_FONT_ROTATION
 296:Core/u8g2/u8g2_font.c **** static u8g2_uint_t u8g2_add_vector_y(u8g2_uint_t dy, int8_t x, int8_t y, uint8_t dir) U8G2_NOINLINE
 297:Core/u8g2/u8g2_font.c **** static u8g2_uint_t u8g2_add_vector_y(u8g2_uint_t dy, int8_t x, int8_t y, uint8_t dir)
 298:Core/u8g2/u8g2_font.c **** {
  78              		.loc 1 298 0
  79              		.cfi_startproc
  80              		@ args = 0, pretend = 0, frame = 0
  81              		@ frame_needed = 0, uses_anonymous_args = 0
  82              		@ link register save eliminated.
  83              	.LVL6:
 299:Core/u8g2/u8g2_font.c ****   switch(dir)
  84              		.loc 1 299 0
  85 0000 012B     		cmp	r3, #1
  86 0002 08D0     		beq	.L5
  87 0004 23B1     		cbz	r3, .L6
  88 0006 022B     		cmp	r3, #2
  89 0008 08D0     		beq	.L7
 300:Core/u8g2/u8g2_font.c ****   {
 301:Core/u8g2/u8g2_font.c ****     case 0:
 302:Core/u8g2/u8g2_font.c ****       dy += y;
 303:Core/u8g2/u8g2_font.c ****       break;
 304:Core/u8g2/u8g2_font.c ****     case 1:
 305:Core/u8g2/u8g2_font.c ****       dy += x;
 306:Core/u8g2/u8g2_font.c ****       break;
 307:Core/u8g2/u8g2_font.c ****     case 2:
 308:Core/u8g2/u8g2_font.c ****       dy -= y;
 309:Core/u8g2/u8g2_font.c ****       break;
 310:Core/u8g2/u8g2_font.c ****     default:
 311:Core/u8g2/u8g2_font.c ****       dy -= x;
  90              		.loc 1 311 0
  91 000a 401A     		subs	r0, r0, r1
  92              	.LVL7:
  93 000c C0B2     		uxtb	r0, r0
ARM GAS  C:\Users\ASUS\AppData\Local\Temp\ccnpu2Hi.s 			page 8


  94              	.LVL8:
 312:Core/u8g2/u8g2_font.c ****       break;      
 313:Core/u8g2/u8g2_font.c ****   }
 314:Core/u8g2/u8g2_font.c ****   return dy;
 315:Core/u8g2/u8g2_font.c **** }
  95              		.loc 1 315 0
  96 000e 7047     		bx	lr
  97              	.L6:
 302:Core/u8g2/u8g2_font.c ****       break;
  98              		.loc 1 302 0
  99 0010 1044     		add	r0, r0, r2
 100              	.LVL9:
 101 0012 C0B2     		uxtb	r0, r0
 102              	.LVL10:
 303:Core/u8g2/u8g2_font.c ****     case 1:
 103              		.loc 1 303 0
 104 0014 7047     		bx	lr
 105              	.L5:
 305:Core/u8g2/u8g2_font.c ****       break;
 106              		.loc 1 305 0
 107 0016 0844     		add	r0, r0, r1
 108              	.LVL11:
 109 0018 C0B2     		uxtb	r0, r0
 110              	.LVL12:
 306:Core/u8g2/u8g2_font.c ****     case 2:
 111              		.loc 1 306 0
 112 001a 7047     		bx	lr
 113              	.L7:
 308:Core/u8g2/u8g2_font.c ****       break;
 114              		.loc 1 308 0
 115 001c 801A     		subs	r0, r0, r2
 116              	.LVL13:
 117 001e C0B2     		uxtb	r0, r0
 118              	.LVL14:
 309:Core/u8g2/u8g2_font.c ****     default:
 119              		.loc 1 309 0
 120 0020 7047     		bx	lr
 121              		.cfi_endproc
 122              	.LFE11:
 124              		.section	.text.u8g2_add_vector_x,"ax",%progbits
 125              		.align	1
 126              		.syntax unified
 127              		.thumb
 128              		.thumb_func
 129              		.fpu softvfp
 131              	u8g2_add_vector_x:
 132              	.LFB12:
 316:Core/u8g2/u8g2_font.c **** 
 317:Core/u8g2/u8g2_font.c **** static u8g2_uint_t u8g2_add_vector_x(u8g2_uint_t dx, int8_t x, int8_t y, uint8_t dir) U8G2_NOINLINE
 318:Core/u8g2/u8g2_font.c **** static u8g2_uint_t u8g2_add_vector_x(u8g2_uint_t dx, int8_t x, int8_t y, uint8_t dir)
 319:Core/u8g2/u8g2_font.c **** {
 133              		.loc 1 319 0
 134              		.cfi_startproc
 135              		@ args = 0, pretend = 0, frame = 0
 136              		@ frame_needed = 0, uses_anonymous_args = 0
 137              		@ link register save eliminated.
 138              	.LVL15:
ARM GAS  C:\Users\ASUS\AppData\Local\Temp\ccnpu2Hi.s 			page 9


 320:Core/u8g2/u8g2_font.c ****   switch(dir)
 139              		.loc 1 320 0
 140 0000 012B     		cmp	r3, #1
 141 0002 08D0     		beq	.L12
 142 0004 23B1     		cbz	r3, .L13
 143 0006 022B     		cmp	r3, #2
 144 0008 08D0     		beq	.L14
 321:Core/u8g2/u8g2_font.c ****   {
 322:Core/u8g2/u8g2_font.c ****     case 0:
 323:Core/u8g2/u8g2_font.c ****       dx += x;
 324:Core/u8g2/u8g2_font.c ****       break;
 325:Core/u8g2/u8g2_font.c ****     case 1:
 326:Core/u8g2/u8g2_font.c ****       dx -= y;
 327:Core/u8g2/u8g2_font.c ****       break;
 328:Core/u8g2/u8g2_font.c ****     case 2:
 329:Core/u8g2/u8g2_font.c ****       dx -= x;
 330:Core/u8g2/u8g2_font.c ****       break;
 331:Core/u8g2/u8g2_font.c ****     default:
 332:Core/u8g2/u8g2_font.c ****       dx += y;
 145              		.loc 1 332 0
 146 000a 1044     		add	r0, r0, r2
 147              	.LVL16:
 148 000c C0B2     		uxtb	r0, r0
 149              	.LVL17:
 333:Core/u8g2/u8g2_font.c ****       break;      
 334:Core/u8g2/u8g2_font.c ****   }
 335:Core/u8g2/u8g2_font.c ****   return dx;
 336:Core/u8g2/u8g2_font.c **** }
 150              		.loc 1 336 0
 151 000e 7047     		bx	lr
 152              	.L13:
 323:Core/u8g2/u8g2_font.c ****       break;
 153              		.loc 1 323 0
 154 0010 0844     		add	r0, r0, r1
 155              	.LVL18:
 156 0012 C0B2     		uxtb	r0, r0
 157              	.LVL19:
 324:Core/u8g2/u8g2_font.c ****     case 1:
 158              		.loc 1 324 0
 159 0014 7047     		bx	lr
 160              	.L12:
 326:Core/u8g2/u8g2_font.c ****       break;
 161              		.loc 1 326 0
 162 0016 801A     		subs	r0, r0, r2
 163              	.LVL20:
 164 0018 C0B2     		uxtb	r0, r0
 165              	.LVL21:
 327:Core/u8g2/u8g2_font.c ****     case 2:
 166              		.loc 1 327 0
 167 001a 7047     		bx	lr
 168              	.L14:
 329:Core/u8g2/u8g2_font.c ****       break;
 169              		.loc 1 329 0
 170 001c 401A     		subs	r0, r0, r1
 171              	.LVL22:
 172 001e C0B2     		uxtb	r0, r0
 173              	.LVL23:
ARM GAS  C:\Users\ASUS\AppData\Local\Temp\ccnpu2Hi.s 			page 10


 330:Core/u8g2/u8g2_font.c ****     default:
 174              		.loc 1 330 0
 175 0020 7047     		bx	lr
 176              		.cfi_endproc
 177              	.LFE12:
 179              		.section	.text.u8g2_font_calc_vref_font,"ax",%progbits
 180              		.align	1
 181              		.global	u8g2_font_calc_vref_font
 182              		.syntax unified
 183              		.thumb
 184              		.thumb_func
 185              		.fpu softvfp
 187              	u8g2_font_calc_vref_font:
 188              	.LFB31:
 337:Core/u8g2/u8g2_font.c **** #endif
 338:Core/u8g2/u8g2_font.c **** 
 339:Core/u8g2/u8g2_font.c **** 
 340:Core/u8g2/u8g2_font.c **** 
 341:Core/u8g2/u8g2_font.c **** /*
 342:Core/u8g2/u8g2_font.c ****   Description:
 343:Core/u8g2/u8g2_font.c ****     Draw a run-length area of the glyph. "len" can have any size and the line
 344:Core/u8g2/u8g2_font.c ****     length has to be wrapped at the glyph border.
 345:Core/u8g2/u8g2_font.c ****   Args:
 346:Core/u8g2/u8g2_font.c ****     len: 					Length of the line
 347:Core/u8g2/u8g2_font.c ****     is_foreground			foreground/background?
 348:Core/u8g2/u8g2_font.c ****     u8g2->font_decode.target_x		X position
 349:Core/u8g2/u8g2_font.c ****     u8g2->font_decode.target_y		Y position
 350:Core/u8g2/u8g2_font.c ****     u8g2->font_decode.is_transparent	Transparent mode
 351:Core/u8g2/u8g2_font.c ****   Return:
 352:Core/u8g2/u8g2_font.c ****     -
 353:Core/u8g2/u8g2_font.c ****   Calls:
 354:Core/u8g2/u8g2_font.c ****     u8g2_Draw90Line()
 355:Core/u8g2/u8g2_font.c ****   Called by:
 356:Core/u8g2/u8g2_font.c ****     u8g2_font_decode_glyph()
 357:Core/u8g2/u8g2_font.c **** */
 358:Core/u8g2/u8g2_font.c **** /* optimized */
 359:Core/u8g2/u8g2_font.c **** void u8g2_font_decode_len(u8g2_t *u8g2, uint8_t len, uint8_t is_foreground)
 360:Core/u8g2/u8g2_font.c **** {
 361:Core/u8g2/u8g2_font.c ****   uint8_t cnt;	/* total number of remaining pixels, which have to be drawn */
 362:Core/u8g2/u8g2_font.c ****   uint8_t rem; 	/* remaining pixel to the right edge of the glyph */
 363:Core/u8g2/u8g2_font.c ****   uint8_t current;	/* number of pixels, which need to be drawn for the draw procedure */
 364:Core/u8g2/u8g2_font.c ****     /* current is either equal to cnt or equal to rem */
 365:Core/u8g2/u8g2_font.c ****   
 366:Core/u8g2/u8g2_font.c ****   /* local coordinates of the glyph */
 367:Core/u8g2/u8g2_font.c ****   uint8_t lx,ly;
 368:Core/u8g2/u8g2_font.c ****   
 369:Core/u8g2/u8g2_font.c ****   /* target position on the screen */
 370:Core/u8g2/u8g2_font.c ****   u8g2_uint_t x, y;
 371:Core/u8g2/u8g2_font.c ****   
 372:Core/u8g2/u8g2_font.c ****   u8g2_font_decode_t *decode = &(u8g2->font_decode);
 373:Core/u8g2/u8g2_font.c ****   
 374:Core/u8g2/u8g2_font.c ****   cnt = len;
 375:Core/u8g2/u8g2_font.c ****   
 376:Core/u8g2/u8g2_font.c ****   /* get the local position */
 377:Core/u8g2/u8g2_font.c ****   lx = decode->x;
 378:Core/u8g2/u8g2_font.c ****   ly = decode->y;
 379:Core/u8g2/u8g2_font.c ****   
ARM GAS  C:\Users\ASUS\AppData\Local\Temp\ccnpu2Hi.s 			page 11


 380:Core/u8g2/u8g2_font.c ****   for(;;)
 381:Core/u8g2/u8g2_font.c ****   {
 382:Core/u8g2/u8g2_font.c ****     /* calculate the number of pixel to the right edge of the glyph */
 383:Core/u8g2/u8g2_font.c ****     rem = decode->glyph_width;
 384:Core/u8g2/u8g2_font.c ****     rem -= lx;
 385:Core/u8g2/u8g2_font.c ****     
 386:Core/u8g2/u8g2_font.c ****     /* calculate how many pixel to draw. This is either to the right edge */
 387:Core/u8g2/u8g2_font.c ****     /* or lesser, if not enough pixel are left */
 388:Core/u8g2/u8g2_font.c ****     current = rem;
 389:Core/u8g2/u8g2_font.c ****     if ( cnt < rem )
 390:Core/u8g2/u8g2_font.c ****       current = cnt;
 391:Core/u8g2/u8g2_font.c ****     
 392:Core/u8g2/u8g2_font.c ****     
 393:Core/u8g2/u8g2_font.c ****     /* now draw the line, but apply the rotation around the glyph target position */
 394:Core/u8g2/u8g2_font.c ****     //u8g2_font_decode_draw_pixel(u8g2, lx,ly,current, is_foreground);
 395:Core/u8g2/u8g2_font.c **** 
 396:Core/u8g2/u8g2_font.c ****     /* get target position */
 397:Core/u8g2/u8g2_font.c ****     x = decode->target_x;
 398:Core/u8g2/u8g2_font.c ****     y = decode->target_y;
 399:Core/u8g2/u8g2_font.c **** 
 400:Core/u8g2/u8g2_font.c ****     /* apply rotation */
 401:Core/u8g2/u8g2_font.c **** #ifdef U8G2_WITH_FONT_ROTATION
 402:Core/u8g2/u8g2_font.c ****     x = u8g2_add_vector_x(x, lx, ly, decode->dir);
 403:Core/u8g2/u8g2_font.c ****     y = u8g2_add_vector_y(y, lx, ly, decode->dir);
 404:Core/u8g2/u8g2_font.c **** #else
 405:Core/u8g2/u8g2_font.c ****     x += lx;
 406:Core/u8g2/u8g2_font.c ****     y += ly;
 407:Core/u8g2/u8g2_font.c **** #endif
 408:Core/u8g2/u8g2_font.c ****     
 409:Core/u8g2/u8g2_font.c ****     /* draw foreground and background (if required) */
 410:Core/u8g2/u8g2_font.c ****     if ( is_foreground )
 411:Core/u8g2/u8g2_font.c ****     {
 412:Core/u8g2/u8g2_font.c ****       u8g2->draw_color = decode->fg_color;			/* draw_color will be restored later */
 413:Core/u8g2/u8g2_font.c ****       u8g2_DrawHVLine(u8g2, 
 414:Core/u8g2/u8g2_font.c **** 	x, 
 415:Core/u8g2/u8g2_font.c **** 	y, 
 416:Core/u8g2/u8g2_font.c **** 	current, 
 417:Core/u8g2/u8g2_font.c **** #ifdef U8G2_WITH_FONT_ROTATION
 418:Core/u8g2/u8g2_font.c **** 	/* dir */ decode->dir
 419:Core/u8g2/u8g2_font.c **** #else
 420:Core/u8g2/u8g2_font.c **** 	0
 421:Core/u8g2/u8g2_font.c **** #endif
 422:Core/u8g2/u8g2_font.c ****       );
 423:Core/u8g2/u8g2_font.c ****     }
 424:Core/u8g2/u8g2_font.c ****     else if ( decode->is_transparent == 0 )    
 425:Core/u8g2/u8g2_font.c ****     {
 426:Core/u8g2/u8g2_font.c ****       u8g2->draw_color = decode->bg_color;			/* draw_color will be restored later */
 427:Core/u8g2/u8g2_font.c ****       u8g2_DrawHVLine(u8g2, 
 428:Core/u8g2/u8g2_font.c **** 	x, 
 429:Core/u8g2/u8g2_font.c **** 	y, 
 430:Core/u8g2/u8g2_font.c **** 	current, 
 431:Core/u8g2/u8g2_font.c **** #ifdef U8G2_WITH_FONT_ROTATION
 432:Core/u8g2/u8g2_font.c **** 	/* dir */ decode->dir
 433:Core/u8g2/u8g2_font.c **** #else
 434:Core/u8g2/u8g2_font.c **** 	0
 435:Core/u8g2/u8g2_font.c **** #endif
 436:Core/u8g2/u8g2_font.c ****       );   
ARM GAS  C:\Users\ASUS\AppData\Local\Temp\ccnpu2Hi.s 			page 12


 437:Core/u8g2/u8g2_font.c ****     }
 438:Core/u8g2/u8g2_font.c ****     
 439:Core/u8g2/u8g2_font.c ****     /* check, whether the end of the run length code has been reached */
 440:Core/u8g2/u8g2_font.c ****     if ( cnt < rem )
 441:Core/u8g2/u8g2_font.c ****       break;
 442:Core/u8g2/u8g2_font.c ****     cnt -= rem;
 443:Core/u8g2/u8g2_font.c ****     lx = 0;
 444:Core/u8g2/u8g2_font.c ****     ly++;
 445:Core/u8g2/u8g2_font.c ****   }
 446:Core/u8g2/u8g2_font.c ****   lx += cnt;
 447:Core/u8g2/u8g2_font.c ****   
 448:Core/u8g2/u8g2_font.c ****   decode->x = lx;
 449:Core/u8g2/u8g2_font.c ****   decode->y = ly;
 450:Core/u8g2/u8g2_font.c ****   
 451:Core/u8g2/u8g2_font.c **** }
 452:Core/u8g2/u8g2_font.c **** 
 453:Core/u8g2/u8g2_font.c **** static void u8g2_font_setup_decode(u8g2_t *u8g2, const uint8_t *glyph_data)
 454:Core/u8g2/u8g2_font.c **** {
 455:Core/u8g2/u8g2_font.c ****   u8g2_font_decode_t *decode = &(u8g2->font_decode);
 456:Core/u8g2/u8g2_font.c ****   decode->decode_ptr = glyph_data;
 457:Core/u8g2/u8g2_font.c ****   decode->decode_bit_pos = 0;
 458:Core/u8g2/u8g2_font.c ****   
 459:Core/u8g2/u8g2_font.c ****   /* 8 Nov 2015, this is already done in the glyph data search procedure */
 460:Core/u8g2/u8g2_font.c ****   /*
 461:Core/u8g2/u8g2_font.c ****   decode->decode_ptr += 1;
 462:Core/u8g2/u8g2_font.c ****   decode->decode_ptr += 1;
 463:Core/u8g2/u8g2_font.c ****   */
 464:Core/u8g2/u8g2_font.c ****   
 465:Core/u8g2/u8g2_font.c ****   decode->glyph_width = u8g2_font_decode_get_unsigned_bits(decode, u8g2->font_info.bits_per_char_wi
 466:Core/u8g2/u8g2_font.c ****   decode->glyph_height = u8g2_font_decode_get_unsigned_bits(decode,u8g2->font_info.bits_per_char_he
 467:Core/u8g2/u8g2_font.c ****   
 468:Core/u8g2/u8g2_font.c ****   decode->fg_color = u8g2->draw_color;
 469:Core/u8g2/u8g2_font.c ****   decode->bg_color = (decode->fg_color == 0 ? 1 : 0);
 470:Core/u8g2/u8g2_font.c **** }
 471:Core/u8g2/u8g2_font.c **** 
 472:Core/u8g2/u8g2_font.c **** 
 473:Core/u8g2/u8g2_font.c **** /*
 474:Core/u8g2/u8g2_font.c ****   Description:
 475:Core/u8g2/u8g2_font.c ****     Decode and draw a glyph.
 476:Core/u8g2/u8g2_font.c ****   Args:
 477:Core/u8g2/u8g2_font.c ****     glyph_data: 					Pointer to the compressed glyph data of the font
 478:Core/u8g2/u8g2_font.c ****     u8g2->font_decode.target_x		X position
 479:Core/u8g2/u8g2_font.c ****     u8g2->font_decode.target_y		Y position
 480:Core/u8g2/u8g2_font.c ****     u8g2->font_decode.is_transparent	Transparent mode
 481:Core/u8g2/u8g2_font.c ****   Return:
 482:Core/u8g2/u8g2_font.c ****     Width (delta x advance) of the glyph.
 483:Core/u8g2/u8g2_font.c ****   Calls:
 484:Core/u8g2/u8g2_font.c ****     u8g2_font_decode_len()
 485:Core/u8g2/u8g2_font.c **** */
 486:Core/u8g2/u8g2_font.c **** /* optimized */
 487:Core/u8g2/u8g2_font.c **** int8_t u8g2_font_decode_glyph(u8g2_t *u8g2, const uint8_t *glyph_data)
 488:Core/u8g2/u8g2_font.c **** {
 489:Core/u8g2/u8g2_font.c ****   uint8_t a, b;
 490:Core/u8g2/u8g2_font.c ****   int8_t x, y;
 491:Core/u8g2/u8g2_font.c ****   int8_t d;
 492:Core/u8g2/u8g2_font.c ****   int8_t h;
 493:Core/u8g2/u8g2_font.c ****   u8g2_font_decode_t *decode = &(u8g2->font_decode);
ARM GAS  C:\Users\ASUS\AppData\Local\Temp\ccnpu2Hi.s 			page 13


 494:Core/u8g2/u8g2_font.c ****     
 495:Core/u8g2/u8g2_font.c ****   u8g2_font_setup_decode(u8g2, glyph_data);
 496:Core/u8g2/u8g2_font.c ****   h = u8g2->font_decode.glyph_height;
 497:Core/u8g2/u8g2_font.c ****   
 498:Core/u8g2/u8g2_font.c ****   x = u8g2_font_decode_get_signed_bits(decode, u8g2->font_info.bits_per_char_x);
 499:Core/u8g2/u8g2_font.c ****   y = u8g2_font_decode_get_signed_bits(decode, u8g2->font_info.bits_per_char_y);
 500:Core/u8g2/u8g2_font.c ****   d = u8g2_font_decode_get_signed_bits(decode, u8g2->font_info.bits_per_delta_x);
 501:Core/u8g2/u8g2_font.c ****   
 502:Core/u8g2/u8g2_font.c ****   if ( decode->glyph_width > 0 )
 503:Core/u8g2/u8g2_font.c ****   {
 504:Core/u8g2/u8g2_font.c **** #ifdef U8G2_WITH_FONT_ROTATION
 505:Core/u8g2/u8g2_font.c ****     decode->target_x = u8g2_add_vector_x(decode->target_x, x, -(h+y), decode->dir);
 506:Core/u8g2/u8g2_font.c ****     decode->target_y = u8g2_add_vector_y(decode->target_y, x, -(h+y), decode->dir);
 507:Core/u8g2/u8g2_font.c **** #else
 508:Core/u8g2/u8g2_font.c ****     decode->target_x += x;
 509:Core/u8g2/u8g2_font.c ****     decode->target_y -= h+y;
 510:Core/u8g2/u8g2_font.c **** #endif
 511:Core/u8g2/u8g2_font.c ****     //u8g2_add_vector(&(decode->target_x), &(decode->target_y), x, -(h+y), decode->dir);
 512:Core/u8g2/u8g2_font.c **** 
 513:Core/u8g2/u8g2_font.c **** #ifdef U8G2_WITH_INTERSECTION
 514:Core/u8g2/u8g2_font.c ****     {
 515:Core/u8g2/u8g2_font.c ****       u8g2_uint_t x0, x1, y0, y1;
 516:Core/u8g2/u8g2_font.c ****       x0 = decode->target_x;
 517:Core/u8g2/u8g2_font.c ****       y0 = decode->target_y;
 518:Core/u8g2/u8g2_font.c ****       x1 = x0;
 519:Core/u8g2/u8g2_font.c ****       y1 = y0;
 520:Core/u8g2/u8g2_font.c ****       
 521:Core/u8g2/u8g2_font.c **** #ifdef U8G2_WITH_FONT_ROTATION
 522:Core/u8g2/u8g2_font.c ****       switch(decode->dir)
 523:Core/u8g2/u8g2_font.c ****       {
 524:Core/u8g2/u8g2_font.c **** 	case 0:
 525:Core/u8g2/u8g2_font.c **** 	    x1 += decode->glyph_width;
 526:Core/u8g2/u8g2_font.c **** 	    y1 += h;
 527:Core/u8g2/u8g2_font.c **** 	    break;
 528:Core/u8g2/u8g2_font.c **** 	case 1:
 529:Core/u8g2/u8g2_font.c **** 	    x0 -= h;
 530:Core/u8g2/u8g2_font.c **** 	    x0++;	/* shift down, because of assymetric boundaries for the interseciton test */
 531:Core/u8g2/u8g2_font.c **** 	    x1++;
 532:Core/u8g2/u8g2_font.c **** 	    y1 += decode->glyph_width;
 533:Core/u8g2/u8g2_font.c **** 	    break;
 534:Core/u8g2/u8g2_font.c **** 	case 2:
 535:Core/u8g2/u8g2_font.c **** 	    x0 -= decode->glyph_width;
 536:Core/u8g2/u8g2_font.c **** 	    x0++;	/* shift down, because of assymetric boundaries for the interseciton test */
 537:Core/u8g2/u8g2_font.c **** 	    x1++;
 538:Core/u8g2/u8g2_font.c **** 	    y0 -= h;
 539:Core/u8g2/u8g2_font.c **** 	    y0++;	/* shift down, because of assymetric boundaries for the interseciton test */
 540:Core/u8g2/u8g2_font.c **** 	    y1++;
 541:Core/u8g2/u8g2_font.c **** 	    break;	  
 542:Core/u8g2/u8g2_font.c **** 	case 3:
 543:Core/u8g2/u8g2_font.c **** 	    x1 += h;
 544:Core/u8g2/u8g2_font.c **** 	    y0 -= decode->glyph_width;
 545:Core/u8g2/u8g2_font.c **** 	    y0++;	/* shift down, because of assymetric boundaries for the interseciton test */
 546:Core/u8g2/u8g2_font.c **** 	    y1++;
 547:Core/u8g2/u8g2_font.c **** 	    break;	  
 548:Core/u8g2/u8g2_font.c ****       }
 549:Core/u8g2/u8g2_font.c **** #else /* U8G2_WITH_FONT_ROTATION */
 550:Core/u8g2/u8g2_font.c ****       x1 += decode->glyph_width;
ARM GAS  C:\Users\ASUS\AppData\Local\Temp\ccnpu2Hi.s 			page 14


 551:Core/u8g2/u8g2_font.c ****       y1 += h;      
 552:Core/u8g2/u8g2_font.c **** #endif
 553:Core/u8g2/u8g2_font.c ****       
 554:Core/u8g2/u8g2_font.c ****       if ( u8g2_IsIntersection(u8g2, x0, y0, x1, y1) == 0 ) 
 555:Core/u8g2/u8g2_font.c **** 	return d;
 556:Core/u8g2/u8g2_font.c ****     }
 557:Core/u8g2/u8g2_font.c **** #endif /* U8G2_WITH_INTERSECTION */
 558:Core/u8g2/u8g2_font.c ****    
 559:Core/u8g2/u8g2_font.c ****     /* reset local x/y position */
 560:Core/u8g2/u8g2_font.c ****     decode->x = 0;
 561:Core/u8g2/u8g2_font.c ****     decode->y = 0;
 562:Core/u8g2/u8g2_font.c ****     
 563:Core/u8g2/u8g2_font.c ****     /* decode glyph */
 564:Core/u8g2/u8g2_font.c ****     for(;;)
 565:Core/u8g2/u8g2_font.c ****     {
 566:Core/u8g2/u8g2_font.c ****       a = u8g2_font_decode_get_unsigned_bits(decode, u8g2->font_info.bits_per_0);
 567:Core/u8g2/u8g2_font.c ****       b = u8g2_font_decode_get_unsigned_bits(decode, u8g2->font_info.bits_per_1);
 568:Core/u8g2/u8g2_font.c ****       do
 569:Core/u8g2/u8g2_font.c ****       {
 570:Core/u8g2/u8g2_font.c **** 	u8g2_font_decode_len(u8g2, a, 0);
 571:Core/u8g2/u8g2_font.c **** 	u8g2_font_decode_len(u8g2, b, 1);
 572:Core/u8g2/u8g2_font.c ****       } while( u8g2_font_decode_get_unsigned_bits(decode, 1) != 0 );
 573:Core/u8g2/u8g2_font.c **** 
 574:Core/u8g2/u8g2_font.c ****       if ( decode->y >= h )
 575:Core/u8g2/u8g2_font.c **** 	break;
 576:Core/u8g2/u8g2_font.c ****     }
 577:Core/u8g2/u8g2_font.c ****     
 578:Core/u8g2/u8g2_font.c ****     /* restore the u8g2 draw color, because this is modified by the decode algo */
 579:Core/u8g2/u8g2_font.c ****     u8g2->draw_color = decode->fg_color;
 580:Core/u8g2/u8g2_font.c ****   }
 581:Core/u8g2/u8g2_font.c ****   return d;
 582:Core/u8g2/u8g2_font.c **** }
 583:Core/u8g2/u8g2_font.c **** 
 584:Core/u8g2/u8g2_font.c **** /*
 585:Core/u8g2/u8g2_font.c ****   Description:
 586:Core/u8g2/u8g2_font.c ****     Find the starting point of the glyph data.
 587:Core/u8g2/u8g2_font.c ****   Args:
 588:Core/u8g2/u8g2_font.c ****     encoding: Encoding (ASCII or Unicode) of the glyph
 589:Core/u8g2/u8g2_font.c ****   Return:
 590:Core/u8g2/u8g2_font.c ****     Address of the glyph data or NULL, if the encoding is not avialable in the font.
 591:Core/u8g2/u8g2_font.c **** */
 592:Core/u8g2/u8g2_font.c **** const uint8_t *u8g2_font_get_glyph_data(u8g2_t *u8g2, uint16_t encoding)
 593:Core/u8g2/u8g2_font.c **** {
 594:Core/u8g2/u8g2_font.c ****   const uint8_t *font = u8g2->font;
 595:Core/u8g2/u8g2_font.c ****   font += U8G2_FONT_DATA_STRUCT_SIZE;
 596:Core/u8g2/u8g2_font.c **** 
 597:Core/u8g2/u8g2_font.c ****   
 598:Core/u8g2/u8g2_font.c ****   if ( encoding <= 255 )
 599:Core/u8g2/u8g2_font.c ****   {
 600:Core/u8g2/u8g2_font.c ****     if ( encoding >= 'a' )
 601:Core/u8g2/u8g2_font.c ****     {
 602:Core/u8g2/u8g2_font.c ****       font += u8g2->font_info.start_pos_lower_a;
 603:Core/u8g2/u8g2_font.c ****     }
 604:Core/u8g2/u8g2_font.c ****     else if ( encoding >= 'A' )
 605:Core/u8g2/u8g2_font.c ****     {
 606:Core/u8g2/u8g2_font.c ****       font += u8g2->font_info.start_pos_upper_A;
 607:Core/u8g2/u8g2_font.c ****     }
ARM GAS  C:\Users\ASUS\AppData\Local\Temp\ccnpu2Hi.s 			page 15


 608:Core/u8g2/u8g2_font.c ****     
 609:Core/u8g2/u8g2_font.c ****     for(;;)
 610:Core/u8g2/u8g2_font.c ****     {
 611:Core/u8g2/u8g2_font.c ****       if ( u8x8_pgm_read( font + 1 ) == 0 )
 612:Core/u8g2/u8g2_font.c **** 	break;
 613:Core/u8g2/u8g2_font.c ****       if ( u8x8_pgm_read( font ) == encoding )
 614:Core/u8g2/u8g2_font.c ****       {
 615:Core/u8g2/u8g2_font.c **** 	return font+2;	/* skip encoding and glyph size */
 616:Core/u8g2/u8g2_font.c ****       }
 617:Core/u8g2/u8g2_font.c ****       font += u8x8_pgm_read( font + 1 );
 618:Core/u8g2/u8g2_font.c ****     }
 619:Core/u8g2/u8g2_font.c ****   }
 620:Core/u8g2/u8g2_font.c **** #ifdef U8G2_WITH_UNICODE
 621:Core/u8g2/u8g2_font.c ****   else
 622:Core/u8g2/u8g2_font.c ****   {
 623:Core/u8g2/u8g2_font.c ****     uint16_t e;
 624:Core/u8g2/u8g2_font.c ****     const uint8_t *unicode_lookup_table;
 625:Core/u8g2/u8g2_font.c ****     
 626:Core/u8g2/u8g2_font.c **** // removed, there is now the new index table
 627:Core/u8g2/u8g2_font.c **** //#ifdef  __unix__
 628:Core/u8g2/u8g2_font.c **** //    if ( u8g2->last_font_data != NULL && encoding >= u8g2->last_unicode )
 629:Core/u8g2/u8g2_font.c **** //    {
 630:Core/u8g2/u8g2_font.c **** //	font = u8g2->last_font_data;
 631:Core/u8g2/u8g2_font.c **** //    }
 632:Core/u8g2/u8g2_font.c **** //    else
 633:Core/u8g2/u8g2_font.c **** //#endif 
 634:Core/u8g2/u8g2_font.c **** 
 635:Core/u8g2/u8g2_font.c ****     font += u8g2->font_info.start_pos_unicode;
 636:Core/u8g2/u8g2_font.c ****     unicode_lookup_table = font; 
 637:Core/u8g2/u8g2_font.c ****   
 638:Core/u8g2/u8g2_font.c ****     /* issue 596: search for the glyph start in the unicode lookup table */
 639:Core/u8g2/u8g2_font.c ****     do
 640:Core/u8g2/u8g2_font.c ****     {
 641:Core/u8g2/u8g2_font.c ****       font += u8g2_font_get_word(unicode_lookup_table, 0);
 642:Core/u8g2/u8g2_font.c ****       e = u8g2_font_get_word(unicode_lookup_table, 2);
 643:Core/u8g2/u8g2_font.c ****       unicode_lookup_table+=4;
 644:Core/u8g2/u8g2_font.c ****     } while( e < encoding );
 645:Core/u8g2/u8g2_font.c ****     
 646:Core/u8g2/u8g2_font.c ****   
 647:Core/u8g2/u8g2_font.c ****     for(;;)
 648:Core/u8g2/u8g2_font.c ****     {
 649:Core/u8g2/u8g2_font.c ****       e = u8x8_pgm_read( font );
 650:Core/u8g2/u8g2_font.c ****       e <<= 8;
 651:Core/u8g2/u8g2_font.c ****       e |= u8x8_pgm_read( font + 1 );
 652:Core/u8g2/u8g2_font.c ****   
 653:Core/u8g2/u8g2_font.c **** // removed, there is now the new index table  
 654:Core/u8g2/u8g2_font.c **** //#ifdef  __unix__
 655:Core/u8g2/u8g2_font.c **** //      if ( encoding < e )
 656:Core/u8g2/u8g2_font.c **** //        break;
 657:Core/u8g2/u8g2_font.c **** //#endif 
 658:Core/u8g2/u8g2_font.c **** 
 659:Core/u8g2/u8g2_font.c ****       if ( e == 0 )
 660:Core/u8g2/u8g2_font.c **** 	break;
 661:Core/u8g2/u8g2_font.c ****   
 662:Core/u8g2/u8g2_font.c ****       if ( e == encoding )
 663:Core/u8g2/u8g2_font.c ****       {
 664:Core/u8g2/u8g2_font.c **** // removed, there is now the new index table
ARM GAS  C:\Users\ASUS\AppData\Local\Temp\ccnpu2Hi.s 			page 16


 665:Core/u8g2/u8g2_font.c **** //#ifdef  __unix__
 666:Core/u8g2/u8g2_font.c **** //	u8g2->last_font_data = font;
 667:Core/u8g2/u8g2_font.c **** //	u8g2->last_unicode = encoding;
 668:Core/u8g2/u8g2_font.c **** //#endif 
 669:Core/u8g2/u8g2_font.c **** 	return font+3;	/* skip encoding and glyph size */
 670:Core/u8g2/u8g2_font.c ****       }
 671:Core/u8g2/u8g2_font.c ****       font += u8x8_pgm_read( font + 2 );
 672:Core/u8g2/u8g2_font.c ****     }  
 673:Core/u8g2/u8g2_font.c ****   }
 674:Core/u8g2/u8g2_font.c **** #endif
 675:Core/u8g2/u8g2_font.c ****   
 676:Core/u8g2/u8g2_font.c ****   return NULL;
 677:Core/u8g2/u8g2_font.c **** }
 678:Core/u8g2/u8g2_font.c **** 
 679:Core/u8g2/u8g2_font.c **** static u8g2_uint_t u8g2_font_draw_glyph(u8g2_t *u8g2, u8g2_uint_t x, u8g2_uint_t y, uint16_t encodi
 680:Core/u8g2/u8g2_font.c **** {
 681:Core/u8g2/u8g2_font.c ****   u8g2_uint_t dx = 0;
 682:Core/u8g2/u8g2_font.c ****   u8g2->font_decode.target_x = x;
 683:Core/u8g2/u8g2_font.c ****   u8g2->font_decode.target_y = y;
 684:Core/u8g2/u8g2_font.c ****   //u8g2->font_decode.is_transparent = is_transparent; this is already set
 685:Core/u8g2/u8g2_font.c ****   //u8g2->font_decode.dir = dir;
 686:Core/u8g2/u8g2_font.c ****   const uint8_t *glyph_data = u8g2_font_get_glyph_data(u8g2, encoding);
 687:Core/u8g2/u8g2_font.c ****   if ( glyph_data != NULL )
 688:Core/u8g2/u8g2_font.c ****   {
 689:Core/u8g2/u8g2_font.c ****     dx = u8g2_font_decode_glyph(u8g2, glyph_data);
 690:Core/u8g2/u8g2_font.c ****   }
 691:Core/u8g2/u8g2_font.c ****   return dx;
 692:Core/u8g2/u8g2_font.c **** }
 693:Core/u8g2/u8g2_font.c **** 
 694:Core/u8g2/u8g2_font.c **** 
 695:Core/u8g2/u8g2_font.c **** 
 696:Core/u8g2/u8g2_font.c **** uint8_t u8g2_IsGlyph(u8g2_t *u8g2, uint16_t requested_encoding)
 697:Core/u8g2/u8g2_font.c **** {
 698:Core/u8g2/u8g2_font.c ****   /* updated to new code */
 699:Core/u8g2/u8g2_font.c ****   if ( u8g2_font_get_glyph_data(u8g2, requested_encoding) != NULL )
 700:Core/u8g2/u8g2_font.c ****     return 1;
 701:Core/u8g2/u8g2_font.c ****   return 0;
 702:Core/u8g2/u8g2_font.c **** }
 703:Core/u8g2/u8g2_font.c **** 
 704:Core/u8g2/u8g2_font.c **** /* side effect: updates u8g2->font_decode and u8g2->glyph_x_offset */
 705:Core/u8g2/u8g2_font.c **** int8_t u8g2_GetGlyphWidth(u8g2_t *u8g2, uint16_t requested_encoding)
 706:Core/u8g2/u8g2_font.c **** {
 707:Core/u8g2/u8g2_font.c ****   const uint8_t *glyph_data = u8g2_font_get_glyph_data(u8g2, requested_encoding);
 708:Core/u8g2/u8g2_font.c ****   if ( glyph_data == NULL )
 709:Core/u8g2/u8g2_font.c ****     return 0; 
 710:Core/u8g2/u8g2_font.c ****   
 711:Core/u8g2/u8g2_font.c ****   u8g2_font_setup_decode(u8g2, glyph_data);
 712:Core/u8g2/u8g2_font.c ****   u8g2->glyph_x_offset = u8g2_font_decode_get_signed_bits(&(u8g2->font_decode), u8g2->font_info.bit
 713:Core/u8g2/u8g2_font.c ****   u8g2_font_decode_get_signed_bits(&(u8g2->font_decode), u8g2->font_info.bits_per_char_y);
 714:Core/u8g2/u8g2_font.c ****   
 715:Core/u8g2/u8g2_font.c ****   /* glyph width is here: u8g2->font_decode.glyph_width */
 716:Core/u8g2/u8g2_font.c **** 
 717:Core/u8g2/u8g2_font.c ****   return u8g2_font_decode_get_signed_bits(&(u8g2->font_decode), u8g2->font_info.bits_per_delta_x);
 718:Core/u8g2/u8g2_font.c **** }
 719:Core/u8g2/u8g2_font.c **** 
 720:Core/u8g2/u8g2_font.c **** 
 721:Core/u8g2/u8g2_font.c **** /*
ARM GAS  C:\Users\ASUS\AppData\Local\Temp\ccnpu2Hi.s 			page 17


 722:Core/u8g2/u8g2_font.c ****   set one of:
 723:Core/u8g2/u8g2_font.c ****     U8G2_FONT_MODE_TRANSPARENT
 724:Core/u8g2/u8g2_font.c ****     U8G2_FONT_MODE_SOLID
 725:Core/u8g2/u8g2_font.c ****     U8G2_FONT_MODE_NONE
 726:Core/u8g2/u8g2_font.c ****   This has been changed for the new font procedures  
 727:Core/u8g2/u8g2_font.c **** */
 728:Core/u8g2/u8g2_font.c **** void u8g2_SetFontMode(u8g2_t *u8g2, uint8_t is_transparent)
 729:Core/u8g2/u8g2_font.c **** {
 730:Core/u8g2/u8g2_font.c ****   u8g2->font_decode.is_transparent = is_transparent;		// new font procedures
 731:Core/u8g2/u8g2_font.c **** }
 732:Core/u8g2/u8g2_font.c **** 
 733:Core/u8g2/u8g2_font.c **** u8g2_uint_t u8g2_DrawGlyph(u8g2_t *u8g2, u8g2_uint_t x, u8g2_uint_t y, uint16_t encoding)
 734:Core/u8g2/u8g2_font.c **** {
 735:Core/u8g2/u8g2_font.c **** #ifdef U8G2_WITH_FONT_ROTATION
 736:Core/u8g2/u8g2_font.c ****   switch(u8g2->font_decode.dir)
 737:Core/u8g2/u8g2_font.c ****   {
 738:Core/u8g2/u8g2_font.c ****     case 0:
 739:Core/u8g2/u8g2_font.c ****       y += u8g2->font_calc_vref(u8g2);
 740:Core/u8g2/u8g2_font.c ****       break;
 741:Core/u8g2/u8g2_font.c ****     case 1:
 742:Core/u8g2/u8g2_font.c ****       x -= u8g2->font_calc_vref(u8g2);
 743:Core/u8g2/u8g2_font.c ****       break;
 744:Core/u8g2/u8g2_font.c ****     case 2:
 745:Core/u8g2/u8g2_font.c ****       y -= u8g2->font_calc_vref(u8g2);
 746:Core/u8g2/u8g2_font.c ****       break;
 747:Core/u8g2/u8g2_font.c ****     case 3:
 748:Core/u8g2/u8g2_font.c ****       x += u8g2->font_calc_vref(u8g2);
 749:Core/u8g2/u8g2_font.c ****       break;
 750:Core/u8g2/u8g2_font.c ****   }
 751:Core/u8g2/u8g2_font.c **** #else
 752:Core/u8g2/u8g2_font.c ****   y += u8g2->font_calc_vref(u8g2);
 753:Core/u8g2/u8g2_font.c **** #endif
 754:Core/u8g2/u8g2_font.c ****   return u8g2_font_draw_glyph(u8g2, x, y, encoding);
 755:Core/u8g2/u8g2_font.c **** }
 756:Core/u8g2/u8g2_font.c **** 
 757:Core/u8g2/u8g2_font.c **** static u8g2_uint_t u8g2_draw_string(u8g2_t *u8g2, u8g2_uint_t x, u8g2_uint_t y, const char *str) U8
 758:Core/u8g2/u8g2_font.c **** static u8g2_uint_t u8g2_draw_string(u8g2_t *u8g2, u8g2_uint_t x, u8g2_uint_t y, const char *str)
 759:Core/u8g2/u8g2_font.c **** {
 760:Core/u8g2/u8g2_font.c ****   uint16_t e;
 761:Core/u8g2/u8g2_font.c ****   u8g2_uint_t delta, sum;
 762:Core/u8g2/u8g2_font.c ****   u8x8_utf8_init(u8g2_GetU8x8(u8g2));
 763:Core/u8g2/u8g2_font.c ****   sum = 0;
 764:Core/u8g2/u8g2_font.c ****   for(;;)
 765:Core/u8g2/u8g2_font.c ****   {
 766:Core/u8g2/u8g2_font.c ****     e = u8g2->u8x8.next_cb(u8g2_GetU8x8(u8g2), (uint8_t)*str);
 767:Core/u8g2/u8g2_font.c ****     if ( e == 0x0ffff )
 768:Core/u8g2/u8g2_font.c ****       break;
 769:Core/u8g2/u8g2_font.c ****     str++;
 770:Core/u8g2/u8g2_font.c ****     if ( e != 0x0fffe )
 771:Core/u8g2/u8g2_font.c ****     {
 772:Core/u8g2/u8g2_font.c ****       delta = u8g2_DrawGlyph(u8g2, x, y, e);
 773:Core/u8g2/u8g2_font.c ****     
 774:Core/u8g2/u8g2_font.c **** #ifdef U8G2_WITH_FONT_ROTATION
 775:Core/u8g2/u8g2_font.c ****       switch(u8g2->font_decode.dir)
 776:Core/u8g2/u8g2_font.c ****       {
 777:Core/u8g2/u8g2_font.c **** 	case 0:
 778:Core/u8g2/u8g2_font.c **** 	  x += delta;
ARM GAS  C:\Users\ASUS\AppData\Local\Temp\ccnpu2Hi.s 			page 18


 779:Core/u8g2/u8g2_font.c **** 	  break;
 780:Core/u8g2/u8g2_font.c **** 	case 1:
 781:Core/u8g2/u8g2_font.c **** 	  y += delta;
 782:Core/u8g2/u8g2_font.c **** 	  break;
 783:Core/u8g2/u8g2_font.c **** 	case 2:
 784:Core/u8g2/u8g2_font.c **** 	  x -= delta;
 785:Core/u8g2/u8g2_font.c **** 	  break;
 786:Core/u8g2/u8g2_font.c **** 	case 3:
 787:Core/u8g2/u8g2_font.c **** 	  y -= delta;
 788:Core/u8g2/u8g2_font.c **** 	  break;
 789:Core/u8g2/u8g2_font.c ****       }
 790:Core/u8g2/u8g2_font.c **** #else
 791:Core/u8g2/u8g2_font.c ****       x += delta;
 792:Core/u8g2/u8g2_font.c **** #endif
 793:Core/u8g2/u8g2_font.c **** 
 794:Core/u8g2/u8g2_font.c ****       sum += delta;    
 795:Core/u8g2/u8g2_font.c ****     }
 796:Core/u8g2/u8g2_font.c ****   }
 797:Core/u8g2/u8g2_font.c ****   return sum;
 798:Core/u8g2/u8g2_font.c **** }
 799:Core/u8g2/u8g2_font.c **** 
 800:Core/u8g2/u8g2_font.c **** u8g2_uint_t u8g2_DrawStr(u8g2_t *u8g2, u8g2_uint_t x, u8g2_uint_t y, const char *str)
 801:Core/u8g2/u8g2_font.c **** {
 802:Core/u8g2/u8g2_font.c ****   u8g2->u8x8.next_cb = u8x8_ascii_next;
 803:Core/u8g2/u8g2_font.c ****   return u8g2_draw_string(u8g2, x, y, str);
 804:Core/u8g2/u8g2_font.c **** }
 805:Core/u8g2/u8g2_font.c **** 
 806:Core/u8g2/u8g2_font.c **** /*
 807:Core/u8g2/u8g2_font.c **** source: https://en.wikipedia.org/wiki/UTF-8
 808:Core/u8g2/u8g2_font.c **** Bits	from 		to			bytes	Byte 1 		Byte 2 		Byte 3 		Byte 4 		Byte 5 		Byte 6
 809:Core/u8g2/u8g2_font.c ****   7 	U+0000 		U+007F 		1 		0xxxxxxx
 810:Core/u8g2/u8g2_font.c **** 11 	U+0080 		U+07FF 		2 		110xxxxx 	10xxxxxx
 811:Core/u8g2/u8g2_font.c **** 16 	U+0800 		U+FFFF 		3 		1110xxxx 	10xxxxxx 	10xxxxxx
 812:Core/u8g2/u8g2_font.c **** 21 	U+10000 	U+1FFFFF 	4 		11110xxx 	10xxxxxx 	10xxxxxx 	10xxxxxx
 813:Core/u8g2/u8g2_font.c **** 26 	U+200000 	U+3FFFFFF 	5 		111110xx 	10xxxxxx 	10xxxxxx 	10xxxxxx 	10xxxxxx
 814:Core/u8g2/u8g2_font.c **** 31 	U+4000000 	U+7FFFFFFF 	6 		1111110x 	10xxxxxx 	10xxxxxx 	10xxxxxx 	10xxxxxx 	10xxxxxx  
 815:Core/u8g2/u8g2_font.c **** */
 816:Core/u8g2/u8g2_font.c **** u8g2_uint_t u8g2_DrawUTF8(u8g2_t *u8g2, u8g2_uint_t x, u8g2_uint_t y, const char *str)
 817:Core/u8g2/u8g2_font.c **** {
 818:Core/u8g2/u8g2_font.c ****   u8g2->u8x8.next_cb = u8x8_utf8_next;
 819:Core/u8g2/u8g2_font.c ****   return u8g2_draw_string(u8g2, x, y, str);
 820:Core/u8g2/u8g2_font.c **** }
 821:Core/u8g2/u8g2_font.c **** 
 822:Core/u8g2/u8g2_font.c **** 
 823:Core/u8g2/u8g2_font.c **** 
 824:Core/u8g2/u8g2_font.c **** u8g2_uint_t u8g2_DrawExtendedUTF8(u8g2_t *u8g2, u8g2_uint_t x, u8g2_uint_t y, uint8_t to_left, u8g2
 825:Core/u8g2/u8g2_font.c **** {
 826:Core/u8g2/u8g2_font.c ****   u8g2->u8x8.next_cb = u8x8_utf8_next;
 827:Core/u8g2/u8g2_font.c ****   uint16_t e_prev = 0x0ffff;
 828:Core/u8g2/u8g2_font.c ****   uint16_t e;
 829:Core/u8g2/u8g2_font.c ****   u8g2_uint_t delta, sum, k;
 830:Core/u8g2/u8g2_font.c ****   u8x8_utf8_init(u8g2_GetU8x8(u8g2));
 831:Core/u8g2/u8g2_font.c ****   sum = 0;
 832:Core/u8g2/u8g2_font.c ****   for(;;)
 833:Core/u8g2/u8g2_font.c ****   {
 834:Core/u8g2/u8g2_font.c ****     e = u8g2->u8x8.next_cb(u8g2_GetU8x8(u8g2), (uint8_t)*str);
 835:Core/u8g2/u8g2_font.c ****     if ( e == 0x0ffff )
ARM GAS  C:\Users\ASUS\AppData\Local\Temp\ccnpu2Hi.s 			page 19


 836:Core/u8g2/u8g2_font.c ****       break;
 837:Core/u8g2/u8g2_font.c ****     str++;
 838:Core/u8g2/u8g2_font.c ****     if ( e != 0x0fffe )
 839:Core/u8g2/u8g2_font.c ****     {
 840:Core/u8g2/u8g2_font.c ****       delta = u8g2_GetGlyphWidth(u8g2, e);
 841:Core/u8g2/u8g2_font.c **** 	    
 842:Core/u8g2/u8g2_font.c ****       if ( to_left )
 843:Core/u8g2/u8g2_font.c ****       {
 844:Core/u8g2/u8g2_font.c ****         k = u8g2_GetKerning(u8g2, kerning, e, e_prev);
 845:Core/u8g2/u8g2_font.c **** 	delta -= k;
 846:Core/u8g2/u8g2_font.c **** 	x -= delta;
 847:Core/u8g2/u8g2_font.c ****       }
 848:Core/u8g2/u8g2_font.c ****       else
 849:Core/u8g2/u8g2_font.c ****       {
 850:Core/u8g2/u8g2_font.c ****         k = u8g2_GetKerning(u8g2, kerning, e_prev, e);
 851:Core/u8g2/u8g2_font.c **** 	delta -= k;
 852:Core/u8g2/u8g2_font.c ****       }
 853:Core/u8g2/u8g2_font.c ****       e_prev = e;
 854:Core/u8g2/u8g2_font.c **** 
 855:Core/u8g2/u8g2_font.c ****       u8g2_DrawGlyph(u8g2, x, y, e);
 856:Core/u8g2/u8g2_font.c ****       if ( to_left )
 857:Core/u8g2/u8g2_font.c ****       {
 858:Core/u8g2/u8g2_font.c ****       }
 859:Core/u8g2/u8g2_font.c ****       else
 860:Core/u8g2/u8g2_font.c ****       {
 861:Core/u8g2/u8g2_font.c **** 	x += delta;
 862:Core/u8g2/u8g2_font.c **** 	x -= k;
 863:Core/u8g2/u8g2_font.c ****       }
 864:Core/u8g2/u8g2_font.c ****       
 865:Core/u8g2/u8g2_font.c ****       sum += delta;    
 866:Core/u8g2/u8g2_font.c ****     }
 867:Core/u8g2/u8g2_font.c ****   }
 868:Core/u8g2/u8g2_font.c ****   return sum;
 869:Core/u8g2/u8g2_font.c **** }
 870:Core/u8g2/u8g2_font.c **** 
 871:Core/u8g2/u8g2_font.c **** u8g2_uint_t u8g2_DrawExtUTF8(u8g2_t *u8g2, u8g2_uint_t x, u8g2_uint_t y, uint8_t to_left, const uin
 872:Core/u8g2/u8g2_font.c **** {
 873:Core/u8g2/u8g2_font.c ****   u8g2->u8x8.next_cb = u8x8_utf8_next;
 874:Core/u8g2/u8g2_font.c ****   uint16_t e_prev = 0x0ffff;
 875:Core/u8g2/u8g2_font.c ****   uint16_t e;
 876:Core/u8g2/u8g2_font.c ****   u8g2_uint_t delta, sum, k;
 877:Core/u8g2/u8g2_font.c ****   u8x8_utf8_init(u8g2_GetU8x8(u8g2));
 878:Core/u8g2/u8g2_font.c ****   sum = 0;
 879:Core/u8g2/u8g2_font.c ****   for(;;)
 880:Core/u8g2/u8g2_font.c ****   {
 881:Core/u8g2/u8g2_font.c ****     e = u8g2->u8x8.next_cb(u8g2_GetU8x8(u8g2), (uint8_t)*str);
 882:Core/u8g2/u8g2_font.c ****     if ( e == 0x0ffff )
 883:Core/u8g2/u8g2_font.c ****       break;
 884:Core/u8g2/u8g2_font.c ****     str++;
 885:Core/u8g2/u8g2_font.c ****     if ( e != 0x0fffe )
 886:Core/u8g2/u8g2_font.c ****     {
 887:Core/u8g2/u8g2_font.c ****       delta = u8g2_GetGlyphWidth(u8g2, e);
 888:Core/u8g2/u8g2_font.c **** 	    
 889:Core/u8g2/u8g2_font.c ****       if ( to_left )
 890:Core/u8g2/u8g2_font.c ****       {
 891:Core/u8g2/u8g2_font.c ****         k = u8g2_GetKerningByTable(u8g2, kerning_table, e, e_prev);
 892:Core/u8g2/u8g2_font.c **** 	delta -= k;
ARM GAS  C:\Users\ASUS\AppData\Local\Temp\ccnpu2Hi.s 			page 20


 893:Core/u8g2/u8g2_font.c **** 	x -= delta;
 894:Core/u8g2/u8g2_font.c ****       }
 895:Core/u8g2/u8g2_font.c ****       else
 896:Core/u8g2/u8g2_font.c ****       {
 897:Core/u8g2/u8g2_font.c ****         k = u8g2_GetKerningByTable(u8g2, kerning_table, e_prev, e);
 898:Core/u8g2/u8g2_font.c **** 	delta -= k;
 899:Core/u8g2/u8g2_font.c ****       }
 900:Core/u8g2/u8g2_font.c ****       e_prev = e;
 901:Core/u8g2/u8g2_font.c **** 
 902:Core/u8g2/u8g2_font.c ****       if ( to_left )
 903:Core/u8g2/u8g2_font.c ****       {
 904:Core/u8g2/u8g2_font.c ****       }
 905:Core/u8g2/u8g2_font.c ****       else
 906:Core/u8g2/u8g2_font.c ****       {
 907:Core/u8g2/u8g2_font.c **** 	x += delta;
 908:Core/u8g2/u8g2_font.c ****       }
 909:Core/u8g2/u8g2_font.c ****       u8g2_DrawGlyph(u8g2, x, y, e);
 910:Core/u8g2/u8g2_font.c ****       if ( to_left )
 911:Core/u8g2/u8g2_font.c ****       {
 912:Core/u8g2/u8g2_font.c ****       }
 913:Core/u8g2/u8g2_font.c ****       else
 914:Core/u8g2/u8g2_font.c ****       {
 915:Core/u8g2/u8g2_font.c **** 	//x += delta;
 916:Core/u8g2/u8g2_font.c **** 	//x -= k;
 917:Core/u8g2/u8g2_font.c ****       }
 918:Core/u8g2/u8g2_font.c ****       
 919:Core/u8g2/u8g2_font.c ****       sum += delta;    
 920:Core/u8g2/u8g2_font.c ****     }
 921:Core/u8g2/u8g2_font.c ****   }
 922:Core/u8g2/u8g2_font.c ****   return sum;
 923:Core/u8g2/u8g2_font.c **** }
 924:Core/u8g2/u8g2_font.c **** 
 925:Core/u8g2/u8g2_font.c **** 
 926:Core/u8g2/u8g2_font.c **** 
 927:Core/u8g2/u8g2_font.c **** /*===============================================*/
 928:Core/u8g2/u8g2_font.c **** 
 929:Core/u8g2/u8g2_font.c **** /* set ascent/descent for reference point calculation */
 930:Core/u8g2/u8g2_font.c **** 
 931:Core/u8g2/u8g2_font.c **** void u8g2_UpdateRefHeight(u8g2_t *u8g2)
 932:Core/u8g2/u8g2_font.c **** {
 933:Core/u8g2/u8g2_font.c ****   if ( u8g2->font == NULL )
 934:Core/u8g2/u8g2_font.c ****     return;
 935:Core/u8g2/u8g2_font.c ****   u8g2->font_ref_ascent = u8g2->font_info.ascent_A;
 936:Core/u8g2/u8g2_font.c ****   u8g2->font_ref_descent = u8g2->font_info.descent_g;
 937:Core/u8g2/u8g2_font.c ****   if ( u8g2->font_height_mode == U8G2_FONT_HEIGHT_MODE_TEXT )
 938:Core/u8g2/u8g2_font.c ****   {
 939:Core/u8g2/u8g2_font.c ****   }
 940:Core/u8g2/u8g2_font.c ****   else if ( u8g2->font_height_mode == U8G2_FONT_HEIGHT_MODE_XTEXT )
 941:Core/u8g2/u8g2_font.c ****   {
 942:Core/u8g2/u8g2_font.c ****     if ( u8g2->font_ref_ascent < u8g2->font_info.ascent_para )
 943:Core/u8g2/u8g2_font.c ****       u8g2->font_ref_ascent = u8g2->font_info.ascent_para;
 944:Core/u8g2/u8g2_font.c ****     if ( u8g2->font_ref_descent > u8g2->font_info.descent_para )
 945:Core/u8g2/u8g2_font.c ****       u8g2->font_ref_descent = u8g2->font_info.descent_para;
 946:Core/u8g2/u8g2_font.c ****   }
 947:Core/u8g2/u8g2_font.c ****   else
 948:Core/u8g2/u8g2_font.c ****   {
 949:Core/u8g2/u8g2_font.c ****     if ( u8g2->font_ref_ascent < u8g2->font_info.max_char_height+u8g2->font_info.y_offset )
ARM GAS  C:\Users\ASUS\AppData\Local\Temp\ccnpu2Hi.s 			page 21


 950:Core/u8g2/u8g2_font.c ****       u8g2->font_ref_ascent = u8g2->font_info.max_char_height+u8g2->font_info.y_offset;
 951:Core/u8g2/u8g2_font.c ****     if ( u8g2->font_ref_descent > u8g2->font_info.y_offset )
 952:Core/u8g2/u8g2_font.c ****       u8g2->font_ref_descent = u8g2->font_info.y_offset;
 953:Core/u8g2/u8g2_font.c ****   }  
 954:Core/u8g2/u8g2_font.c **** }
 955:Core/u8g2/u8g2_font.c **** 
 956:Core/u8g2/u8g2_font.c **** void u8g2_SetFontRefHeightText(u8g2_t *u8g2)
 957:Core/u8g2/u8g2_font.c **** {
 958:Core/u8g2/u8g2_font.c ****   u8g2->font_height_mode = U8G2_FONT_HEIGHT_MODE_TEXT;
 959:Core/u8g2/u8g2_font.c ****   u8g2_UpdateRefHeight(u8g2);
 960:Core/u8g2/u8g2_font.c **** }
 961:Core/u8g2/u8g2_font.c **** 
 962:Core/u8g2/u8g2_font.c **** void u8g2_SetFontRefHeightExtendedText(u8g2_t *u8g2)
 963:Core/u8g2/u8g2_font.c **** {
 964:Core/u8g2/u8g2_font.c ****   u8g2->font_height_mode = U8G2_FONT_HEIGHT_MODE_XTEXT;
 965:Core/u8g2/u8g2_font.c ****   u8g2_UpdateRefHeight(u8g2);
 966:Core/u8g2/u8g2_font.c **** }
 967:Core/u8g2/u8g2_font.c **** 
 968:Core/u8g2/u8g2_font.c **** void u8g2_SetFontRefHeightAll(u8g2_t *u8g2)
 969:Core/u8g2/u8g2_font.c **** {
 970:Core/u8g2/u8g2_font.c ****   u8g2->font_height_mode = U8G2_FONT_HEIGHT_MODE_ALL;
 971:Core/u8g2/u8g2_font.c ****   u8g2_UpdateRefHeight(u8g2);
 972:Core/u8g2/u8g2_font.c **** }
 973:Core/u8g2/u8g2_font.c **** 
 974:Core/u8g2/u8g2_font.c **** /*===============================================*/
 975:Core/u8g2/u8g2_font.c **** /* callback procedures to correct the y position */
 976:Core/u8g2/u8g2_font.c **** 
 977:Core/u8g2/u8g2_font.c **** u8g2_uint_t u8g2_font_calc_vref_font(U8X8_UNUSED u8g2_t *u8g2)
 978:Core/u8g2/u8g2_font.c **** {
 189              		.loc 1 978 0
 190              		.cfi_startproc
 191              		@ args = 0, pretend = 0, frame = 0
 192              		@ frame_needed = 0, uses_anonymous_args = 0
 193              		@ link register save eliminated.
 194              	.LVL24:
 979:Core/u8g2/u8g2_font.c ****   return 0;
 980:Core/u8g2/u8g2_font.c **** }
 195              		.loc 1 980 0
 196 0000 0020     		movs	r0, #0
 197              	.LVL25:
 198 0002 7047     		bx	lr
 199              		.cfi_endproc
 200              	.LFE31:
 202              		.section	.text.u8g2_font_calc_vref_bottom,"ax",%progbits
 203              		.align	1
 204              		.global	u8g2_font_calc_vref_bottom
 205              		.syntax unified
 206              		.thumb
 207              		.thumb_func
 208              		.fpu softvfp
 210              	u8g2_font_calc_vref_bottom:
 211              	.LFB33:
 981:Core/u8g2/u8g2_font.c **** 
 982:Core/u8g2/u8g2_font.c **** void u8g2_SetFontPosBaseline(u8g2_t *u8g2)
 983:Core/u8g2/u8g2_font.c **** {
 984:Core/u8g2/u8g2_font.c ****   u8g2->font_calc_vref = u8g2_font_calc_vref_font;
 985:Core/u8g2/u8g2_font.c **** }
ARM GAS  C:\Users\ASUS\AppData\Local\Temp\ccnpu2Hi.s 			page 22


 986:Core/u8g2/u8g2_font.c **** 
 987:Core/u8g2/u8g2_font.c **** 
 988:Core/u8g2/u8g2_font.c **** u8g2_uint_t u8g2_font_calc_vref_bottom(u8g2_t *u8g2)
 989:Core/u8g2/u8g2_font.c **** {
 212              		.loc 1 989 0
 213              		.cfi_startproc
 214              		@ args = 0, pretend = 0, frame = 0
 215              		@ frame_needed = 0, uses_anonymous_args = 0
 216              		@ link register save eliminated.
 217              	.LVL26:
 990:Core/u8g2/u8g2_font.c ****   return (u8g2_uint_t)(u8g2->font_ref_descent);
 218              		.loc 1 990 0
 219 0000 90F98300 		ldrsb	r0, [r0, #131]
 220              	.LVL27:
 991:Core/u8g2/u8g2_font.c **** }
 221              		.loc 1 991 0
 222 0004 C0B2     		uxtb	r0, r0
 223 0006 7047     		bx	lr
 224              		.cfi_endproc
 225              	.LFE33:
 227              		.section	.text.u8g2_font_calc_vref_top,"ax",%progbits
 228              		.align	1
 229              		.global	u8g2_font_calc_vref_top
 230              		.syntax unified
 231              		.thumb
 232              		.thumb_func
 233              		.fpu softvfp
 235              	u8g2_font_calc_vref_top:
 236              	.LFB35:
 992:Core/u8g2/u8g2_font.c **** 
 993:Core/u8g2/u8g2_font.c **** void u8g2_SetFontPosBottom(u8g2_t *u8g2)
 994:Core/u8g2/u8g2_font.c **** {
 995:Core/u8g2/u8g2_font.c ****   u8g2->font_calc_vref = u8g2_font_calc_vref_bottom;
 996:Core/u8g2/u8g2_font.c **** }
 997:Core/u8g2/u8g2_font.c **** 
 998:Core/u8g2/u8g2_font.c **** u8g2_uint_t u8g2_font_calc_vref_top(u8g2_t *u8g2)
 999:Core/u8g2/u8g2_font.c **** {
 237              		.loc 1 999 0
 238              		.cfi_startproc
 239              		@ args = 0, pretend = 0, frame = 0
 240              		@ frame_needed = 0, uses_anonymous_args = 0
 241              		@ link register save eliminated.
 242              	.LVL28:
1000:Core/u8g2/u8g2_font.c ****   u8g2_uint_t tmp;
1001:Core/u8g2/u8g2_font.c ****   /* reference pos is one pixel above the upper edge of the reference glyph */
1002:Core/u8g2/u8g2_font.c ****   tmp = (u8g2_uint_t)(u8g2->font_ref_ascent);
 243              		.loc 1 1002 0
 244 0000 90F98200 		ldrsb	r0, [r0, #130]
 245              	.LVL29:
 246 0004 C0B2     		uxtb	r0, r0
 247              	.LVL30:
1003:Core/u8g2/u8g2_font.c ****   tmp++;
 248              		.loc 1 1003 0
 249 0006 0130     		adds	r0, r0, #1
 250              	.LVL31:
1004:Core/u8g2/u8g2_font.c ****   return tmp;
1005:Core/u8g2/u8g2_font.c **** }
ARM GAS  C:\Users\ASUS\AppData\Local\Temp\ccnpu2Hi.s 			page 23


 251              		.loc 1 1005 0
 252 0008 C0B2     		uxtb	r0, r0
 253 000a 7047     		bx	lr
 254              		.cfi_endproc
 255              	.LFE35:
 257              		.section	.text.u8g2_font_calc_vref_center,"ax",%progbits
 258              		.align	1
 259              		.global	u8g2_font_calc_vref_center
 260              		.syntax unified
 261              		.thumb
 262              		.thumb_func
 263              		.fpu softvfp
 265              	u8g2_font_calc_vref_center:
 266              	.LFB37:
1006:Core/u8g2/u8g2_font.c **** 
1007:Core/u8g2/u8g2_font.c **** void u8g2_SetFontPosTop(u8g2_t *u8g2)
1008:Core/u8g2/u8g2_font.c **** {
1009:Core/u8g2/u8g2_font.c ****   u8g2->font_calc_vref = u8g2_font_calc_vref_top;
1010:Core/u8g2/u8g2_font.c **** }
1011:Core/u8g2/u8g2_font.c **** 
1012:Core/u8g2/u8g2_font.c **** u8g2_uint_t u8g2_font_calc_vref_center(u8g2_t *u8g2)
1013:Core/u8g2/u8g2_font.c **** {
 267              		.loc 1 1013 0
 268              		.cfi_startproc
 269              		@ args = 0, pretend = 0, frame = 0
 270              		@ frame_needed = 0, uses_anonymous_args = 0
 271              		@ link register save eliminated.
 272              	.LVL32:
1014:Core/u8g2/u8g2_font.c ****   int8_t tmp;
1015:Core/u8g2/u8g2_font.c ****   tmp = u8g2->font_ref_ascent;
 273              		.loc 1 1015 0
 274 0000 90F98230 		ldrsb	r3, [r0, #130]
 275              	.LVL33:
1016:Core/u8g2/u8g2_font.c ****   tmp -= u8g2->font_ref_descent;
 276              		.loc 1 1016 0
 277 0004 90F88320 		ldrb	r2, [r0, #131]	@ zero_extendqisi2
 278 0008 981A     		subs	r0, r3, r2
 279              	.LVL34:
 280 000a 40B2     		sxtb	r0, r0
 281              	.LVL35:
1017:Core/u8g2/u8g2_font.c ****   tmp /= 2;
 282              		.loc 1 1017 0
 283 000c 00EBD070 		add	r0, r0, r0, lsr #31
 284              	.LVL36:
1018:Core/u8g2/u8g2_font.c ****   tmp += u8g2->font_ref_descent;  
 285              		.loc 1 1018 0
 286 0010 02EB6000 		add	r0, r2, r0, asr #1
 287              	.LVL37:
1019:Core/u8g2/u8g2_font.c ****   return tmp;
1020:Core/u8g2/u8g2_font.c **** }
 288              		.loc 1 1020 0
 289 0014 C0B2     		uxtb	r0, r0
 290 0016 7047     		bx	lr
 291              		.cfi_endproc
 292              	.LFE37:
 294              		.section	.text.u8g2_read_font_info,"ax",%progbits
 295              		.align	1
ARM GAS  C:\Users\ASUS\AppData\Local\Temp\ccnpu2Hi.s 			page 24


 296              		.global	u8g2_read_font_info
 297              		.syntax unified
 298              		.thumb
 299              		.thumb_func
 300              		.fpu softvfp
 302              	u8g2_read_font_info:
 303              	.LFB2:
 132:Core/u8g2/u8g2_font.c ****   /* offset 0 */
 304              		.loc 1 132 0
 305              		.cfi_startproc
 306              		@ args = 0, pretend = 0, frame = 0
 307              		@ frame_needed = 0, uses_anonymous_args = 0
 308              	.LVL38:
 309 0000 38B5     		push	{r3, r4, r5, lr}
 310              	.LCFI0:
 311              		.cfi_def_cfa_offset 16
 312              		.cfi_offset 3, -16
 313              		.cfi_offset 4, -12
 314              		.cfi_offset 5, -8
 315              		.cfi_offset 14, -4
 316 0002 0446     		mov	r4, r0
 317 0004 0D46     		mov	r5, r1
 134:Core/u8g2/u8g2_font.c ****   font_info->bbx_mode = u8g2_font_get_byte(font, 1);
 318              		.loc 1 134 0
 319 0006 0021     		movs	r1, #0
 320              	.LVL39:
 321 0008 2846     		mov	r0, r5
 322              	.LVL40:
 323 000a FFF7FEFF 		bl	u8g2_font_get_byte
 324              	.LVL41:
 325 000e 2070     		strb	r0, [r4]
 135:Core/u8g2/u8g2_font.c ****   font_info->bits_per_0 = u8g2_font_get_byte(font, 2);
 326              		.loc 1 135 0
 327 0010 0121     		movs	r1, #1
 328 0012 2846     		mov	r0, r5
 329 0014 FFF7FEFF 		bl	u8g2_font_get_byte
 330              	.LVL42:
 331 0018 6070     		strb	r0, [r4, #1]
 136:Core/u8g2/u8g2_font.c ****   font_info->bits_per_1 = u8g2_font_get_byte(font, 3);
 332              		.loc 1 136 0
 333 001a 0221     		movs	r1, #2
 334 001c 2846     		mov	r0, r5
 335 001e FFF7FEFF 		bl	u8g2_font_get_byte
 336              	.LVL43:
 337 0022 A070     		strb	r0, [r4, #2]
 137:Core/u8g2/u8g2_font.c ****   
 338              		.loc 1 137 0
 339 0024 0321     		movs	r1, #3
 340 0026 2846     		mov	r0, r5
 341 0028 FFF7FEFF 		bl	u8g2_font_get_byte
 342              	.LVL44:
 343 002c E070     		strb	r0, [r4, #3]
 140:Core/u8g2/u8g2_font.c ****   font_info->bits_per_char_height = u8g2_font_get_byte(font, 5);
 344              		.loc 1 140 0
 345 002e 0421     		movs	r1, #4
 346 0030 2846     		mov	r0, r5
 347 0032 FFF7FEFF 		bl	u8g2_font_get_byte
ARM GAS  C:\Users\ASUS\AppData\Local\Temp\ccnpu2Hi.s 			page 25


 348              	.LVL45:
 349 0036 2071     		strb	r0, [r4, #4]
 141:Core/u8g2/u8g2_font.c ****   font_info->bits_per_char_x = u8g2_font_get_byte(font, 6);
 350              		.loc 1 141 0
 351 0038 0521     		movs	r1, #5
 352 003a 2846     		mov	r0, r5
 353 003c FFF7FEFF 		bl	u8g2_font_get_byte
 354              	.LVL46:
 355 0040 6071     		strb	r0, [r4, #5]
 142:Core/u8g2/u8g2_font.c ****   font_info->bits_per_char_y = u8g2_font_get_byte(font, 7);
 356              		.loc 1 142 0
 357 0042 0621     		movs	r1, #6
 358 0044 2846     		mov	r0, r5
 359 0046 FFF7FEFF 		bl	u8g2_font_get_byte
 360              	.LVL47:
 361 004a A071     		strb	r0, [r4, #6]
 143:Core/u8g2/u8g2_font.c ****   font_info->bits_per_delta_x = u8g2_font_get_byte(font, 8);
 362              		.loc 1 143 0
 363 004c 0721     		movs	r1, #7
 364 004e 2846     		mov	r0, r5
 365 0050 FFF7FEFF 		bl	u8g2_font_get_byte
 366              	.LVL48:
 367 0054 E071     		strb	r0, [r4, #7]
 144:Core/u8g2/u8g2_font.c ****   
 368              		.loc 1 144 0
 369 0056 0821     		movs	r1, #8
 370 0058 2846     		mov	r0, r5
 371 005a FFF7FEFF 		bl	u8g2_font_get_byte
 372              	.LVL49:
 373 005e 2072     		strb	r0, [r4, #8]
 147:Core/u8g2/u8g2_font.c ****   font_info->max_char_height = u8g2_font_get_byte(font, 10);
 374              		.loc 1 147 0
 375 0060 0921     		movs	r1, #9
 376 0062 2846     		mov	r0, r5
 377 0064 FFF7FEFF 		bl	u8g2_font_get_byte
 378              	.LVL50:
 379 0068 6072     		strb	r0, [r4, #9]
 148:Core/u8g2/u8g2_font.c ****   font_info->x_offset = u8g2_font_get_byte(font, 11);
 380              		.loc 1 148 0
 381 006a 0A21     		movs	r1, #10
 382 006c 2846     		mov	r0, r5
 383 006e FFF7FEFF 		bl	u8g2_font_get_byte
 384              	.LVL51:
 385 0072 A072     		strb	r0, [r4, #10]
 149:Core/u8g2/u8g2_font.c ****   font_info->y_offset = u8g2_font_get_byte(font, 12);
 386              		.loc 1 149 0
 387 0074 0B21     		movs	r1, #11
 388 0076 2846     		mov	r0, r5
 389 0078 FFF7FEFF 		bl	u8g2_font_get_byte
 390              	.LVL52:
 391 007c E072     		strb	r0, [r4, #11]
 150:Core/u8g2/u8g2_font.c ****   
 392              		.loc 1 150 0
 393 007e 0C21     		movs	r1, #12
 394 0080 2846     		mov	r0, r5
 395 0082 FFF7FEFF 		bl	u8g2_font_get_byte
 396              	.LVL53:
ARM GAS  C:\Users\ASUS\AppData\Local\Temp\ccnpu2Hi.s 			page 26


 397 0086 2073     		strb	r0, [r4, #12]
 153:Core/u8g2/u8g2_font.c ****   font_info->descent_g = u8g2_font_get_byte(font, 14);
 398              		.loc 1 153 0
 399 0088 0D21     		movs	r1, #13
 400 008a 2846     		mov	r0, r5
 401 008c FFF7FEFF 		bl	u8g2_font_get_byte
 402              	.LVL54:
 403 0090 6073     		strb	r0, [r4, #13]
 154:Core/u8g2/u8g2_font.c ****   font_info->ascent_para = u8g2_font_get_byte(font, 15);
 404              		.loc 1 154 0
 405 0092 0E21     		movs	r1, #14
 406 0094 2846     		mov	r0, r5
 407 0096 FFF7FEFF 		bl	u8g2_font_get_byte
 408              	.LVL55:
 409 009a A073     		strb	r0, [r4, #14]
 155:Core/u8g2/u8g2_font.c ****   font_info->descent_para = u8g2_font_get_byte(font, 16);
 410              		.loc 1 155 0
 411 009c 0F21     		movs	r1, #15
 412 009e 2846     		mov	r0, r5
 413 00a0 FFF7FEFF 		bl	u8g2_font_get_byte
 414              	.LVL56:
 415 00a4 E073     		strb	r0, [r4, #15]
 156:Core/u8g2/u8g2_font.c ****   
 416              		.loc 1 156 0
 417 00a6 1021     		movs	r1, #16
 418 00a8 2846     		mov	r0, r5
 419 00aa FFF7FEFF 		bl	u8g2_font_get_byte
 420              	.LVL57:
 421 00ae 2074     		strb	r0, [r4, #16]
 159:Core/u8g2/u8g2_font.c ****   font_info->start_pos_lower_a = u8g2_font_get_word(font, 19); 
 422              		.loc 1 159 0
 423 00b0 1121     		movs	r1, #17
 424 00b2 2846     		mov	r0, r5
 425 00b4 FFF7FEFF 		bl	u8g2_font_get_word
 426              	.LVL58:
 427 00b8 6082     		strh	r0, [r4, #18]	@ movhi
 160:Core/u8g2/u8g2_font.c ****   
 428              		.loc 1 160 0
 429 00ba 1321     		movs	r1, #19
 430 00bc 2846     		mov	r0, r5
 431 00be FFF7FEFF 		bl	u8g2_font_get_word
 432              	.LVL59:
 433 00c2 A082     		strh	r0, [r4, #20]	@ movhi
 164:Core/u8g2/u8g2_font.c **** #endif
 434              		.loc 1 164 0
 435 00c4 1521     		movs	r1, #21
 436 00c6 2846     		mov	r0, r5
 437 00c8 FFF7FEFF 		bl	u8g2_font_get_word
 438              	.LVL60:
 439 00cc E082     		strh	r0, [r4, #22]	@ movhi
 166:Core/u8g2/u8g2_font.c **** 
 440              		.loc 1 166 0
 441 00ce 38BD     		pop	{r3, r4, r5, pc}
 442              		.cfi_endproc
 443              	.LFE2:
 445              		.section	.text.u8g2_GetFontSize,"ax",%progbits
 446              		.align	1
ARM GAS  C:\Users\ASUS\AppData\Local\Temp\ccnpu2Hi.s 			page 27


 447              		.global	u8g2_GetFontSize
 448              		.syntax unified
 449              		.thumb
 450              		.thumb_func
 451              		.fpu softvfp
 453              	u8g2_GetFontSize:
 454              	.LFB3:
 171:Core/u8g2/u8g2_font.c ****   uint16_t e;
 455              		.loc 1 171 0
 456              		.cfi_startproc
 457              		@ args = 0, pretend = 0, frame = 0
 458              		@ frame_needed = 0, uses_anonymous_args = 0
 459              	.LVL61:
 460 0000 38B5     		push	{r3, r4, r5, lr}
 461              	.LCFI1:
 462              		.cfi_def_cfa_offset 16
 463              		.cfi_offset 3, -16
 464              		.cfi_offset 4, -12
 465              		.cfi_offset 5, -8
 466              		.cfi_offset 14, -4
 467 0002 0546     		mov	r5, r0
 468              	.LVL62:
 174:Core/u8g2/u8g2_font.c ****   
 469              		.loc 1 174 0
 470 0004 1730     		adds	r0, r0, #23
 471              	.LVL63:
 472              	.L25:
 178:Core/u8g2/u8g2_font.c ****       break;
 473              		.loc 1 178 0
 474 0006 4378     		ldrb	r3, [r0, #1]	@ zero_extendqisi2
 475 0008 0BB1     		cbz	r3, .L24
 180:Core/u8g2/u8g2_font.c ****   }
 476              		.loc 1 180 0
 477 000a 1844     		add	r0, r0, r3
 478              	.LVL64:
 178:Core/u8g2/u8g2_font.c ****       break;
 479              		.loc 1 178 0
 480 000c FBE7     		b	.L25
 481              	.L24:
 184:Core/u8g2/u8g2_font.c **** 
 482              		.loc 1 184 0
 483 000e 841C     		adds	r4, r0, #2
 484              	.LVL65:
 187:Core/u8g2/u8g2_font.c ****   
 485              		.loc 1 187 0
 486 0010 0021     		movs	r1, #0
 487 0012 2046     		mov	r0, r4
 488 0014 FFF7FEFF 		bl	u8g2_font_get_word
 489              	.LVL66:
 490 0018 2044     		add	r0, r0, r4
 491              	.LVL67:
 492              	.L27:
 191:Core/u8g2/u8g2_font.c ****     e <<= 8;
 493              		.loc 1 191 0
 494 001a 0278     		ldrb	r2, [r0]	@ zero_extendqisi2
 495              	.LVL68:
 193:Core/u8g2/u8g2_font.c ****     if ( e == 0 )
ARM GAS  C:\Users\ASUS\AppData\Local\Temp\ccnpu2Hi.s 			page 28


 496              		.loc 1 193 0
 497 001c 4378     		ldrb	r3, [r0, #1]	@ zero_extendqisi2
 498              	.LVL69:
 194:Core/u8g2/u8g2_font.c ****       break;
 499              		.loc 1 194 0
 500 001e 53EA0223 		orrs	r3, r3, r2, lsl #8
 501              	.LVL70:
 502 0022 02D0     		beq	.L26
 196:Core/u8g2/u8g2_font.c ****   }
 503              		.loc 1 196 0
 504 0024 8378     		ldrb	r3, [r0, #2]	@ zero_extendqisi2
 505 0026 1844     		add	r0, r0, r3
 506              	.LVL71:
 191:Core/u8g2/u8g2_font.c ****     e <<= 8;
 507              		.loc 1 191 0
 508 0028 F7E7     		b	.L27
 509              	.LVL72:
 510              	.L26:
 199:Core/u8g2/u8g2_font.c **** }
 511              		.loc 1 199 0
 512 002a 401B     		subs	r0, r0, r5
 513              	.LVL73:
 200:Core/u8g2/u8g2_font.c **** 
 514              		.loc 1 200 0
 515 002c 0230     		adds	r0, r0, #2
 516 002e 38BD     		pop	{r3, r4, r5, pc}
 517              		.cfi_endproc
 518              	.LFE3:
 520              		.section	.text.u8g2_GetFontBBXWidth,"ax",%progbits
 521              		.align	1
 522              		.global	u8g2_GetFontBBXWidth
 523              		.syntax unified
 524              		.thumb
 525              		.thumb_func
 526              		.fpu softvfp
 528              	u8g2_GetFontBBXWidth:
 529              	.LFB4:
 206:Core/u8g2/u8g2_font.c ****   return u8g2->font_info.max_char_width;		/* new font info structure */
 530              		.loc 1 206 0
 531              		.cfi_startproc
 532              		@ args = 0, pretend = 0, frame = 0
 533              		@ frame_needed = 0, uses_anonymous_args = 0
 534              		@ link register save eliminated.
 535              	.LVL74:
 208:Core/u8g2/u8g2_font.c **** 
 536              		.loc 1 208 0
 537 0000 90F87100 		ldrb	r0, [r0, #113]	@ zero_extendqisi2
 538              	.LVL75:
 539 0004 7047     		bx	lr
 540              		.cfi_endproc
 541              	.LFE4:
 543              		.section	.text.u8g2_GetFontBBXHeight,"ax",%progbits
 544              		.align	1
 545              		.global	u8g2_GetFontBBXHeight
 546              		.syntax unified
 547              		.thumb
 548              		.thumb_func
ARM GAS  C:\Users\ASUS\AppData\Local\Temp\ccnpu2Hi.s 			page 29


 549              		.fpu softvfp
 551              	u8g2_GetFontBBXHeight:
 552              	.LFB5:
 211:Core/u8g2/u8g2_font.c ****   return u8g2->font_info.max_char_height;		/* new font info structure */
 553              		.loc 1 211 0
 554              		.cfi_startproc
 555              		@ args = 0, pretend = 0, frame = 0
 556              		@ frame_needed = 0, uses_anonymous_args = 0
 557              		@ link register save eliminated.
 558              	.LVL76:
 213:Core/u8g2/u8g2_font.c **** 
 559              		.loc 1 213 0
 560 0000 90F87200 		ldrb	r0, [r0, #114]	@ zero_extendqisi2
 561              	.LVL77:
 562 0004 7047     		bx	lr
 563              		.cfi_endproc
 564              	.LFE5:
 566              		.section	.text.u8g2_GetFontBBXOffX,"ax",%progbits
 567              		.align	1
 568              		.global	u8g2_GetFontBBXOffX
 569              		.syntax unified
 570              		.thumb
 571              		.thumb_func
 572              		.fpu softvfp
 574              	u8g2_GetFontBBXOffX:
 575              	.LFB6:
 217:Core/u8g2/u8g2_font.c ****   return u8g2->font_info.x_offset;		/* new font info structure */
 576              		.loc 1 217 0
 577              		.cfi_startproc
 578              		@ args = 0, pretend = 0, frame = 0
 579              		@ frame_needed = 0, uses_anonymous_args = 0
 580              		@ link register save eliminated.
 581              	.LVL78:
 219:Core/u8g2/u8g2_font.c **** 
 582              		.loc 1 219 0
 583 0000 90F97300 		ldrsb	r0, [r0, #115]
 584              	.LVL79:
 585 0004 7047     		bx	lr
 586              		.cfi_endproc
 587              	.LFE6:
 589              		.section	.text.u8g2_GetFontBBXOffY,"ax",%progbits
 590              		.align	1
 591              		.global	u8g2_GetFontBBXOffY
 592              		.syntax unified
 593              		.thumb
 594              		.thumb_func
 595              		.fpu softvfp
 597              	u8g2_GetFontBBXOffY:
 598              	.LFB7:
 223:Core/u8g2/u8g2_font.c ****   return u8g2->font_info.y_offset;		/* new font info structure */
 599              		.loc 1 223 0
 600              		.cfi_startproc
 601              		@ args = 0, pretend = 0, frame = 0
 602              		@ frame_needed = 0, uses_anonymous_args = 0
 603              		@ link register save eliminated.
 604              	.LVL80:
 225:Core/u8g2/u8g2_font.c **** 
ARM GAS  C:\Users\ASUS\AppData\Local\Temp\ccnpu2Hi.s 			page 30


 605              		.loc 1 225 0
 606 0000 90F97400 		ldrsb	r0, [r0, #116]
 607              	.LVL81:
 608 0004 7047     		bx	lr
 609              		.cfi_endproc
 610              	.LFE7:
 612              		.section	.text.u8g2_GetFontCapitalAHeight,"ax",%progbits
 613              		.align	1
 614              		.global	u8g2_GetFontCapitalAHeight
 615              		.syntax unified
 616              		.thumb
 617              		.thumb_func
 618              		.fpu softvfp
 620              	u8g2_GetFontCapitalAHeight:
 621              	.LFB8:
 229:Core/u8g2/u8g2_font.c ****   return u8g2->font_info.ascent_A;		/* new font info structure */
 622              		.loc 1 229 0
 623              		.cfi_startproc
 624              		@ args = 0, pretend = 0, frame = 0
 625              		@ frame_needed = 0, uses_anonymous_args = 0
 626              		@ link register save eliminated.
 627              	.LVL82:
 231:Core/u8g2/u8g2_font.c **** 
 628              		.loc 1 231 0
 629 0000 90F87500 		ldrb	r0, [r0, #117]	@ zero_extendqisi2
 630              	.LVL83:
 631 0004 7047     		bx	lr
 632              		.cfi_endproc
 633              	.LFE8:
 635              		.section	.text.u8g2_font_decode_get_unsigned_bits,"ax",%progbits
 636              		.align	1
 637              		.global	u8g2_font_decode_get_unsigned_bits
 638              		.syntax unified
 639              		.thumb
 640              		.thumb_func
 641              		.fpu softvfp
 643              	u8g2_font_decode_get_unsigned_bits:
 644              	.LFB9:
 238:Core/u8g2/u8g2_font.c ****   uint8_t val;
 645              		.loc 1 238 0
 646              		.cfi_startproc
 647              		@ args = 0, pretend = 0, frame = 0
 648              		@ frame_needed = 0, uses_anonymous_args = 0
 649              		@ link register save eliminated.
 650              	.LVL84:
 651 0000 70B4     		push	{r4, r5, r6}
 652              	.LCFI2:
 653              		.cfi_def_cfa_offset 12
 654              		.cfi_offset 4, -12
 655              		.cfi_offset 5, -8
 656              		.cfi_offset 6, -4
 240:Core/u8g2/u8g2_font.c ****   uint8_t bit_pos_plus_cnt;
 657              		.loc 1 240 0
 658 0002 847A     		ldrb	r4, [r0, #10]	@ zero_extendqisi2
 659              	.LVL85:
 244:Core/u8g2/u8g2_font.c ****   
 660              		.loc 1 244 0
ARM GAS  C:\Users\ASUS\AppData\Local\Temp\ccnpu2Hi.s 			page 31


 661 0004 0668     		ldr	r6, [r0]
 662 0006 3278     		ldrb	r2, [r6]	@ zero_extendqisi2
 663              	.LVL86:
 246:Core/u8g2/u8g2_font.c ****   bit_pos_plus_cnt = bit_pos;
 664              		.loc 1 246 0
 665 0008 42FA04F5 		asr	r5, r2, r4
 666 000c EAB2     		uxtb	r2, r5
 667              	.LVL87:
 248:Core/u8g2/u8g2_font.c ****   if ( bit_pos_plus_cnt >= 8 )
 668              		.loc 1 248 0
 669 000e 6318     		adds	r3, r4, r1
 670 0010 DBB2     		uxtb	r3, r3
 671              	.LVL88:
 249:Core/u8g2/u8g2_font.c ****   {
 672              		.loc 1 249 0
 673 0012 072B     		cmp	r3, #7
 674 0014 0AD9     		bls	.L35
 675              	.LVL89:
 676              	.LBB2:
 252:Core/u8g2/u8g2_font.c ****     f->decode_ptr++;
 677              		.loc 1 252 0
 678 0016 C4F10804 		rsb	r4, r4, #8
 679              	.LVL90:
 680 001a E4B2     		uxtb	r4, r4
 681              	.LVL91:
 253:Core/u8g2/u8g2_font.c ****     //val |= *(f->decode_ptr) << (8-bit_pos);
 682              		.loc 1 253 0
 683 001c 721C     		adds	r2, r6, #1
 684              	.LVL92:
 685 001e 0260     		str	r2, [r0]
 255:Core/u8g2/u8g2_font.c ****     //bit_pos -= 8;
 686              		.loc 1 255 0
 687 0020 7278     		ldrb	r2, [r6, #1]	@ zero_extendqisi2
 688 0022 A240     		lsls	r2, r2, r4
 689 0024 2A43     		orrs	r2, r2, r5
 690 0026 D2B2     		uxtb	r2, r2
 691              	.LVL93:
 257:Core/u8g2/u8g2_font.c ****   }
 692              		.loc 1 257 0
 693 0028 083B     		subs	r3, r3, #8
 694              	.LVL94:
 695 002a DBB2     		uxtb	r3, r3
 696              	.LVL95:
 697              	.L35:
 698              	.LBE2:
 259:Core/u8g2/u8g2_font.c ****   //bit_pos += cnt;
 699              		.loc 1 259 0
 700 002c 4FF0FF34 		mov	r4, #-1
 701 0030 04FA01F1 		lsl	r1, r4, r1
 702              	.LVL96:
 262:Core/u8g2/u8g2_font.c ****   return val;
 703              		.loc 1 262 0
 704 0034 8372     		strb	r3, [r0, #10]
 705              	.LVL97:
 264:Core/u8g2/u8g2_font.c **** 
 706              		.loc 1 264 0
 707 0036 22EA0100 		bic	r0, r2, r1
ARM GAS  C:\Users\ASUS\AppData\Local\Temp\ccnpu2Hi.s 			page 32


 708              	.LVL98:
 709 003a 70BC     		pop	{r4, r5, r6}
 710              	.LCFI3:
 711              		.cfi_restore 6
 712              		.cfi_restore 5
 713              		.cfi_restore 4
 714              		.cfi_def_cfa_offset 0
 715 003c 7047     		bx	lr
 716              		.cfi_endproc
 717              	.LFE9:
 719              		.section	.text.u8g2_font_setup_decode,"ax",%progbits
 720              		.align	1
 721              		.syntax unified
 722              		.thumb
 723              		.thumb_func
 724              		.fpu softvfp
 726              	u8g2_font_setup_decode:
 727              	.LFB14:
 454:Core/u8g2/u8g2_font.c ****   u8g2_font_decode_t *decode = &(u8g2->font_decode);
 728              		.loc 1 454 0
 729              		.cfi_startproc
 730              		@ args = 0, pretend = 0, frame = 0
 731              		@ frame_needed = 0, uses_anonymous_args = 0
 732              	.LVL99:
 733 0000 38B5     		push	{r3, r4, r5, lr}
 734              	.LCFI4:
 735              		.cfi_def_cfa_offset 16
 736              		.cfi_offset 3, -16
 737              		.cfi_offset 4, -12
 738              		.cfi_offset 5, -8
 739              		.cfi_offset 14, -4
 740 0002 0446     		mov	r4, r0
 455:Core/u8g2/u8g2_font.c ****   decode->decode_ptr = glyph_data;
 741              		.loc 1 455 0
 742 0004 00F15805 		add	r5, r0, #88
 743              	.LVL100:
 456:Core/u8g2/u8g2_font.c ****   decode->decode_bit_pos = 0;
 744              		.loc 1 456 0
 745 0008 8165     		str	r1, [r0, #88]
 457:Core/u8g2/u8g2_font.c ****   
 746              		.loc 1 457 0
 747 000a 0023     		movs	r3, #0
 748 000c 80F86230 		strb	r3, [r0, #98]
 465:Core/u8g2/u8g2_font.c ****   decode->glyph_height = u8g2_font_decode_get_unsigned_bits(decode,u8g2->font_info.bits_per_char_he
 749              		.loc 1 465 0
 750 0010 90F86C10 		ldrb	r1, [r0, #108]	@ zero_extendqisi2
 751              	.LVL101:
 752 0014 2846     		mov	r0, r5
 753              	.LVL102:
 754 0016 FFF7FEFF 		bl	u8g2_font_decode_get_unsigned_bits
 755              	.LVL103:
 756 001a 84F86000 		strb	r0, [r4, #96]
 466:Core/u8g2/u8g2_font.c ****   
 757              		.loc 1 466 0
 758 001e 94F86D10 		ldrb	r1, [r4, #109]	@ zero_extendqisi2
 759 0022 2846     		mov	r0, r5
 760 0024 FFF7FEFF 		bl	u8g2_font_decode_get_unsigned_bits
ARM GAS  C:\Users\ASUS\AppData\Local\Temp\ccnpu2Hi.s 			page 33


 761              	.LVL104:
 762 0028 84F86100 		strb	r0, [r4, #97]
 468:Core/u8g2/u8g2_font.c ****   decode->bg_color = (decode->fg_color == 0 ? 1 : 0);
 763              		.loc 1 468 0
 764 002c 94F88630 		ldrb	r3, [r4, #134]	@ zero_extendqisi2
 765 0030 84F86430 		strb	r3, [r4, #100]
 469:Core/u8g2/u8g2_font.c **** }
 766              		.loc 1 469 0
 767 0034 B3FA83F3 		clz	r3, r3
 768 0038 5B09     		lsrs	r3, r3, #5
 769 003a 84F86530 		strb	r3, [r4, #101]
 470:Core/u8g2/u8g2_font.c **** 
 770              		.loc 1 470 0
 771 003e 38BD     		pop	{r3, r4, r5, pc}
 772              		.cfi_endproc
 773              	.LFE14:
 775              		.section	.text.u8g2_font_decode_get_signed_bits,"ax",%progbits
 776              		.align	1
 777              		.global	u8g2_font_decode_get_signed_bits
 778              		.syntax unified
 779              		.thumb
 780              		.thumb_func
 781              		.fpu softvfp
 783              	u8g2_font_decode_get_signed_bits:
 784              	.LFB10:
 283:Core/u8g2/u8g2_font.c ****   int8_t v, d;
 785              		.loc 1 283 0
 786              		.cfi_startproc
 787              		@ args = 0, pretend = 0, frame = 0
 788              		@ frame_needed = 0, uses_anonymous_args = 0
 789              	.LVL105:
 790 0000 10B5     		push	{r4, lr}
 791              	.LCFI5:
 792              		.cfi_def_cfa_offset 8
 793              		.cfi_offset 4, -8
 794              		.cfi_offset 14, -4
 795 0002 0C46     		mov	r4, r1
 285:Core/u8g2/u8g2_font.c ****   d = 1;
 796              		.loc 1 285 0
 797 0004 FFF7FEFF 		bl	u8g2_font_decode_get_unsigned_bits
 798              	.LVL106:
 287:Core/u8g2/u8g2_font.c ****   d <<= cnt;
 799              		.loc 1 287 0
 800 0008 013C     		subs	r4, r4, #1
 801 000a E4B2     		uxtb	r4, r4
 802              	.LVL107:
 288:Core/u8g2/u8g2_font.c ****   v -= d;
 803              		.loc 1 288 0
 804 000c 0123     		movs	r3, #1
 805 000e A340     		lsls	r3, r3, r4
 806              	.LVL108:
 289:Core/u8g2/u8g2_font.c ****   return v;
 807              		.loc 1 289 0
 808 0010 C01A     		subs	r0, r0, r3
 809              	.LVL109:
 292:Core/u8g2/u8g2_font.c **** 
 810              		.loc 1 292 0
ARM GAS  C:\Users\ASUS\AppData\Local\Temp\ccnpu2Hi.s 			page 34


 811 0012 40B2     		sxtb	r0, r0
 812 0014 10BD     		pop	{r4, pc}
 813              		.cfi_endproc
 814              	.LFE10:
 816              		.section	.text.u8g2_font_decode_len,"ax",%progbits
 817              		.align	1
 818              		.global	u8g2_font_decode_len
 819              		.syntax unified
 820              		.thumb
 821              		.thumb_func
 822              		.fpu softvfp
 824              	u8g2_font_decode_len:
 825              	.LFB13:
 360:Core/u8g2/u8g2_font.c ****   uint8_t cnt;	/* total number of remaining pixels, which have to be drawn */
 826              		.loc 1 360 0
 827              		.cfi_startproc
 828              		@ args = 0, pretend = 0, frame = 16
 829              		@ frame_needed = 0, uses_anonymous_args = 0
 830              	.LVL110:
 831 0000 2DE9F04F 		push	{r4, r5, r6, r7, r8, r9, r10, fp, lr}
 832              	.LCFI6:
 833              		.cfi_def_cfa_offset 36
 834              		.cfi_offset 4, -36
 835              		.cfi_offset 5, -32
 836              		.cfi_offset 6, -28
 837              		.cfi_offset 7, -24
 838              		.cfi_offset 8, -20
 839              		.cfi_offset 9, -16
 840              		.cfi_offset 10, -12
 841              		.cfi_offset 11, -8
 842              		.cfi_offset 14, -4
 843 0004 87B0     		sub	sp, sp, #28
 844              	.LCFI7:
 845              		.cfi_def_cfa_offset 64
 846 0006 0646     		mov	r6, r0
 847 0008 0C46     		mov	r4, r1
 848 000a 0592     		str	r2, [sp, #20]
 849              	.LVL111:
 377:Core/u8g2/u8g2_font.c ****   ly = decode->y;
 850              		.loc 1 377 0
 851 000c 90F95E30 		ldrsb	r3, [r0, #94]
 852 0010 5FFA83FA 		uxtb	r10, r3
 853              	.LVL112:
 378:Core/u8g2/u8g2_font.c ****   
 854              		.loc 1 378 0
 855 0014 90F95F80 		ldrsb	r8, [r0, #95]
 856 0018 5FFA88F8 		uxtb	r8, r8
 857              	.LVL113:
 858 001c 16E0     		b	.L46
 859              	.LVL114:
 860              	.L47:
 390:Core/u8g2/u8g2_font.c ****     
 861              		.loc 1 390 0
 862 001e 0394     		str	r4, [sp, #12]
 863 0020 1DE0     		b	.L42
 864              	.LVL115:
 865              	.L49:
ARM GAS  C:\Users\ASUS\AppData\Local\Temp\ccnpu2Hi.s 			page 35


 412:Core/u8g2/u8g2_font.c ****       u8g2_DrawHVLine(u8g2, 
 866              		.loc 1 412 0
 867 0022 96F86430 		ldrb	r3, [r6, #100]	@ zero_extendqisi2
 868 0026 86F88630 		strb	r3, [r6, #134]
 413:Core/u8g2/u8g2_font.c **** 	x, 
 869              		.loc 1 413 0
 870 002a 0097     		str	r7, [sp]
 871 002c 039B     		ldr	r3, [sp, #12]
 872 002e 0246     		mov	r2, r0
 873 0030 0499     		ldr	r1, [sp, #16]
 874 0032 3046     		mov	r0, r6
 875              	.LVL116:
 876 0034 FFF7FEFF 		bl	u8g2_DrawHVLine
 877              	.LVL117:
 878              	.L44:
 440:Core/u8g2/u8g2_font.c ****       break;
 879              		.loc 1 440 0
 880 0038 AC42     		cmp	r4, r5
 881 003a 39D3     		bcc	.L45
 442:Core/u8g2/u8g2_font.c ****     lx = 0;
 882              		.loc 1 442 0
 883 003c 641B     		subs	r4, r4, r5
 884              	.LVL118:
 885 003e E4B2     		uxtb	r4, r4
 886              	.LVL119:
 444:Core/u8g2/u8g2_font.c ****   }
 887              		.loc 1 444 0
 888 0040 08F10108 		add	r8, r8, #1
 889              	.LVL120:
 890 0044 5FFA88F8 		uxtb	r8, r8
 891              	.LVL121:
 443:Core/u8g2/u8g2_font.c ****     ly++;
 892              		.loc 1 443 0
 893 0048 4FF0000A 		mov	r10, #0
 894              	.LVL122:
 895              	.L46:
 383:Core/u8g2/u8g2_font.c ****     rem -= lx;
 896              		.loc 1 383 0
 897 004c 96F96050 		ldrsb	r5, [r6, #96]
 898 0050 EDB2     		uxtb	r5, r5
 899              	.LVL123:
 384:Core/u8g2/u8g2_font.c ****     
 900              		.loc 1 384 0
 901 0052 A5EB0A05 		sub	r5, r5, r10
 902              	.LVL124:
 903 0056 EDB2     		uxtb	r5, r5
 904              	.LVL125:
 389:Core/u8g2/u8g2_font.c ****       current = cnt;
 905              		.loc 1 389 0
 906 0058 AC42     		cmp	r4, r5
 907 005a E0D3     		bcc	.L47
 388:Core/u8g2/u8g2_font.c ****     if ( cnt < rem )
 908              		.loc 1 388 0
 909 005c 0395     		str	r5, [sp, #12]
 910              	.L42:
 911              	.LVL126:
 398:Core/u8g2/u8g2_font.c **** 
ARM GAS  C:\Users\ASUS\AppData\Local\Temp\ccnpu2Hi.s 			page 36


 912              		.loc 1 398 0
 913 005e 96F85D90 		ldrb	r9, [r6, #93]	@ zero_extendqisi2
 914              	.LVL127:
 402:Core/u8g2/u8g2_font.c ****     y = u8g2_add_vector_y(y, lx, ly, decode->dir);
 915              		.loc 1 402 0
 916 0062 4FFA8AF1 		sxtb	r1, r10
 917 0066 4FFA88FB 		sxtb	fp, r8
 918 006a 96F86670 		ldrb	r7, [r6, #102]	@ zero_extendqisi2
 919 006e 3B46     		mov	r3, r7
 920 0070 5A46     		mov	r2, fp
 921 0072 0291     		str	r1, [sp, #8]
 922 0074 96F85C00 		ldrb	r0, [r6, #92]	@ zero_extendqisi2
 923 0078 FFF7FEFF 		bl	u8g2_add_vector_x
 924              	.LVL128:
 925 007c 0490     		str	r0, [sp, #16]
 926              	.LVL129:
 403:Core/u8g2/u8g2_font.c **** #else
 927              		.loc 1 403 0
 928 007e 3B46     		mov	r3, r7
 929 0080 5A46     		mov	r2, fp
 930 0082 0299     		ldr	r1, [sp, #8]
 931 0084 4846     		mov	r0, r9
 932 0086 FFF7FEFF 		bl	u8g2_add_vector_y
 933              	.LVL130:
 410:Core/u8g2/u8g2_font.c ****     {
 934              		.loc 1 410 0
 935 008a 059B     		ldr	r3, [sp, #20]
 936 008c 002B     		cmp	r3, #0
 937 008e C8D1     		bne	.L49
 424:Core/u8g2/u8g2_font.c ****     {
 938              		.loc 1 424 0
 939 0090 96F86330 		ldrb	r3, [r6, #99]	@ zero_extendqisi2
 940 0094 002B     		cmp	r3, #0
 941 0096 CFD1     		bne	.L44
 426:Core/u8g2/u8g2_font.c ****       u8g2_DrawHVLine(u8g2, 
 942              		.loc 1 426 0
 943 0098 96F86530 		ldrb	r3, [r6, #101]	@ zero_extendqisi2
 944 009c 86F88630 		strb	r3, [r6, #134]
 427:Core/u8g2/u8g2_font.c **** 	x, 
 945              		.loc 1 427 0
 946 00a0 0097     		str	r7, [sp]
 947 00a2 039B     		ldr	r3, [sp, #12]
 948 00a4 0246     		mov	r2, r0
 949 00a6 0499     		ldr	r1, [sp, #16]
 950 00a8 3046     		mov	r0, r6
 951              	.LVL131:
 952 00aa FFF7FEFF 		bl	u8g2_DrawHVLine
 953              	.LVL132:
 954 00ae C3E7     		b	.L44
 955              	.L45:
 446:Core/u8g2/u8g2_font.c ****   
 956              		.loc 1 446 0
 957 00b0 5444     		add	r4, r4, r10
 958              	.LVL133:
 448:Core/u8g2/u8g2_font.c ****   decode->y = ly;
 959              		.loc 1 448 0
 960 00b2 86F85E40 		strb	r4, [r6, #94]
ARM GAS  C:\Users\ASUS\AppData\Local\Temp\ccnpu2Hi.s 			page 37


 449:Core/u8g2/u8g2_font.c ****   
 961              		.loc 1 449 0
 962 00b6 86F85FB0 		strb	fp, [r6, #95]
 451:Core/u8g2/u8g2_font.c **** 
 963              		.loc 1 451 0
 964 00ba 07B0     		add	sp, sp, #28
 965              	.LCFI8:
 966              		.cfi_def_cfa_offset 36
 967              		@ sp needed
 968 00bc BDE8F08F 		pop	{r4, r5, r6, r7, r8, r9, r10, fp, pc}
 969              		.cfi_endproc
 970              	.LFE13:
 972              		.section	.text.u8g2_font_decode_glyph,"ax",%progbits
 973              		.align	1
 974              		.global	u8g2_font_decode_glyph
 975              		.syntax unified
 976              		.thumb
 977              		.thumb_func
 978              		.fpu softvfp
 980              	u8g2_font_decode_glyph:
 981              	.LFB15:
 488:Core/u8g2/u8g2_font.c ****   uint8_t a, b;
 982              		.loc 1 488 0
 983              		.cfi_startproc
 984              		@ args = 0, pretend = 0, frame = 8
 985              		@ frame_needed = 0, uses_anonymous_args = 0
 986              	.LVL134:
 987 0000 2DE9F04F 		push	{r4, r5, r6, r7, r8, r9, r10, fp, lr}
 988              	.LCFI9:
 989              		.cfi_def_cfa_offset 36
 990              		.cfi_offset 4, -36
 991              		.cfi_offset 5, -32
 992              		.cfi_offset 6, -28
 993              		.cfi_offset 7, -24
 994              		.cfi_offset 8, -20
 995              		.cfi_offset 9, -16
 996              		.cfi_offset 10, -12
 997              		.cfi_offset 11, -8
 998              		.cfi_offset 14, -4
 999 0004 85B0     		sub	sp, sp, #20
 1000              	.LCFI10:
 1001              		.cfi_def_cfa_offset 56
 1002 0006 0446     		mov	r4, r0
 493:Core/u8g2/u8g2_font.c ****     
 1003              		.loc 1 493 0
 1004 0008 00F15805 		add	r5, r0, #88
 1005              	.LVL135:
 495:Core/u8g2/u8g2_font.c ****   h = u8g2->font_decode.glyph_height;
 1006              		.loc 1 495 0
 1007 000c FFF7FEFF 		bl	u8g2_font_setup_decode
 1008              	.LVL136:
 496:Core/u8g2/u8g2_font.c ****   
 1009              		.loc 1 496 0
 1010 0010 94F96180 		ldrsb	r8, [r4, #97]
 1011              	.LVL137:
 498:Core/u8g2/u8g2_font.c ****   y = u8g2_font_decode_get_signed_bits(decode, u8g2->font_info.bits_per_char_y);
 1012              		.loc 1 498 0
ARM GAS  C:\Users\ASUS\AppData\Local\Temp\ccnpu2Hi.s 			page 38


 1013 0014 94F86E10 		ldrb	r1, [r4, #110]	@ zero_extendqisi2
 1014 0018 2846     		mov	r0, r5
 1015 001a FFF7FEFF 		bl	u8g2_font_decode_get_signed_bits
 1016              	.LVL138:
 1017 001e 8346     		mov	fp, r0
 1018              	.LVL139:
 499:Core/u8g2/u8g2_font.c ****   d = u8g2_font_decode_get_signed_bits(decode, u8g2->font_info.bits_per_delta_x);
 1019              		.loc 1 499 0
 1020 0020 94F86F10 		ldrb	r1, [r4, #111]	@ zero_extendqisi2
 1021 0024 2846     		mov	r0, r5
 1022 0026 FFF7FEFF 		bl	u8g2_font_decode_get_signed_bits
 1023              	.LVL140:
 1024 002a 0646     		mov	r6, r0
 1025              	.LVL141:
 500:Core/u8g2/u8g2_font.c ****   
 1026              		.loc 1 500 0
 1027 002c 94F87010 		ldrb	r1, [r4, #112]	@ zero_extendqisi2
 1028 0030 2846     		mov	r0, r5
 1029 0032 FFF7FEFF 		bl	u8g2_font_decode_get_signed_bits
 1030              	.LVL142:
 1031 0036 0290     		str	r0, [sp, #8]
 1032              	.LVL143:
 502:Core/u8g2/u8g2_font.c ****   {
 1033              		.loc 1 502 0
 1034 0038 94F96070 		ldrsb	r7, [r4, #96]
 1035 003c 002F     		cmp	r7, #0
 1036 003e 58DD     		ble	.L51
 505:Core/u8g2/u8g2_font.c ****     decode->target_y = u8g2_add_vector_y(decode->target_y, x, -(h+y), decode->dir);
 1037              		.loc 1 505 0
 1038 0040 5FFA88F9 		uxtb	r9, r8
 1039 0044 4E44     		add	r6, r6, r9
 1040              	.LVL144:
 1041 0046 F6B2     		uxtb	r6, r6
 1042 0048 7642     		negs	r6, r6
 1043 004a 76B2     		sxtb	r6, r6
 1044 004c 94F866A0 		ldrb	r10, [r4, #102]	@ zero_extendqisi2
 1045 0050 5346     		mov	r3, r10
 1046 0052 3246     		mov	r2, r6
 1047 0054 CDF80CB0 		str	fp, [sp, #12]
 1048 0058 5946     		mov	r1, fp
 1049 005a 94F85C00 		ldrb	r0, [r4, #92]	@ zero_extendqisi2
 1050 005e FFF7FEFF 		bl	u8g2_add_vector_x
 1051              	.LVL145:
 1052 0062 8346     		mov	fp, r0
 1053              	.LVL146:
 1054 0064 84F85C00 		strb	r0, [r4, #92]
 506:Core/u8g2/u8g2_font.c **** #else
 1055              		.loc 1 506 0
 1056 0068 5346     		mov	r3, r10
 1057 006a 3246     		mov	r2, r6
 1058 006c 0399     		ldr	r1, [sp, #12]
 1059 006e 94F85D00 		ldrb	r0, [r4, #93]	@ zero_extendqisi2
 1060 0072 FFF7FEFF 		bl	u8g2_add_vector_y
 1061              	.LVL147:
 1062 0076 0246     		mov	r2, r0
 1063 0078 84F85D00 		strb	r0, [r4, #93]
 1064              	.LVL148:
ARM GAS  C:\Users\ASUS\AppData\Local\Temp\ccnpu2Hi.s 			page 39


 1065              	.LBB3:
 522:Core/u8g2/u8g2_font.c ****       {
 1066              		.loc 1 522 0
 1067 007c BAF1030F 		cmp	r10, #3
 1068 0080 65D8     		bhi	.L60
 1069 0082 DFE80AF0 		tbb	[pc, r10]
 1070              	.L54:
 1071 0086 02       		.byte	(.L53-.L54)/2
 1072 0087 3A       		.byte	(.L55-.L54)/2
 1073 0088 47       		.byte	(.L56-.L54)/2
 1074 0089 59       		.byte	(.L57-.L54)/2
 1075              		.p2align 1
 1076              	.L53:
 525:Core/u8g2/u8g2_font.c **** 	    y1 += h;
 1077              		.loc 1 525 0
 1078 008a FBB2     		uxtb	r3, r7
 1079 008c 5B44     		add	r3, r3, fp
 1080 008e DBB2     		uxtb	r3, r3
 1081              	.LVL149:
 526:Core/u8g2/u8g2_font.c **** 	    break;
 1082              		.loc 1 526 0
 1083 0090 4844     		add	r0, r9, r0
 1084              	.LVL150:
 1085 0092 C0B2     		uxtb	r0, r0
 1086              	.LVL151:
 1087              	.L52:
 554:Core/u8g2/u8g2_font.c **** 	return d;
 1088              		.loc 1 554 0
 1089 0094 0090     		str	r0, [sp]
 1090 0096 5946     		mov	r1, fp
 1091 0098 2046     		mov	r0, r4
 1092              	.LVL152:
 1093 009a FFF7FEFF 		bl	u8g2_IsIntersection
 1094              	.LVL153:
 1095 009e 40B3     		cbz	r0, .L51
 1096              	.LBE3:
 560:Core/u8g2/u8g2_font.c ****     decode->y = 0;
 1097              		.loc 1 560 0
 1098 00a0 0023     		movs	r3, #0
 1099 00a2 84F85E30 		strb	r3, [r4, #94]
 561:Core/u8g2/u8g2_font.c ****     
 1100              		.loc 1 561 0
 1101 00a6 84F85F30 		strb	r3, [r4, #95]
 1102              	.L59:
 566:Core/u8g2/u8g2_font.c ****       b = u8g2_font_decode_get_unsigned_bits(decode, u8g2->font_info.bits_per_1);
 1103              		.loc 1 566 0
 1104 00aa 94F86A10 		ldrb	r1, [r4, #106]	@ zero_extendqisi2
 1105 00ae 2846     		mov	r0, r5
 1106 00b0 FFF7FEFF 		bl	u8g2_font_decode_get_unsigned_bits
 1107              	.LVL154:
 1108 00b4 0746     		mov	r7, r0
 1109              	.LVL155:
 567:Core/u8g2/u8g2_font.c ****       do
 1110              		.loc 1 567 0
 1111 00b6 94F86B10 		ldrb	r1, [r4, #107]	@ zero_extendqisi2
 1112 00ba 2846     		mov	r0, r5
 1113 00bc FFF7FEFF 		bl	u8g2_font_decode_get_unsigned_bits
ARM GAS  C:\Users\ASUS\AppData\Local\Temp\ccnpu2Hi.s 			page 40


 1114              	.LVL156:
 1115 00c0 0646     		mov	r6, r0
 1116              	.LVL157:
 1117              	.L58:
 570:Core/u8g2/u8g2_font.c **** 	u8g2_font_decode_len(u8g2, b, 1);
 1118              		.loc 1 570 0 discriminator 1
 1119 00c2 0022     		movs	r2, #0
 1120 00c4 3946     		mov	r1, r7
 1121 00c6 2046     		mov	r0, r4
 1122 00c8 FFF7FEFF 		bl	u8g2_font_decode_len
 1123              	.LVL158:
 571:Core/u8g2/u8g2_font.c ****       } while( u8g2_font_decode_get_unsigned_bits(decode, 1) != 0 );
 1124              		.loc 1 571 0 discriminator 1
 1125 00cc 0122     		movs	r2, #1
 1126 00ce 3146     		mov	r1, r6
 1127 00d0 2046     		mov	r0, r4
 1128 00d2 FFF7FEFF 		bl	u8g2_font_decode_len
 1129              	.LVL159:
 572:Core/u8g2/u8g2_font.c **** 
 1130              		.loc 1 572 0 discriminator 1
 1131 00d6 0121     		movs	r1, #1
 1132 00d8 2846     		mov	r0, r5
 1133 00da FFF7FEFF 		bl	u8g2_font_decode_get_unsigned_bits
 1134              	.LVL160:
 1135 00de 0028     		cmp	r0, #0
 1136 00e0 EFD1     		bne	.L58
 574:Core/u8g2/u8g2_font.c **** 	break;
 1137              		.loc 1 574 0
 1138 00e2 94F95F30 		ldrsb	r3, [r4, #95]
 1139 00e6 4345     		cmp	r3, r8
 1140 00e8 DFDB     		blt	.L59
 579:Core/u8g2/u8g2_font.c ****   }
 1141              		.loc 1 579 0
 1142 00ea 94F86430 		ldrb	r3, [r4, #100]	@ zero_extendqisi2
 1143 00ee 84F88630 		strb	r3, [r4, #134]
 1144              	.LVL161:
 1145              	.L51:
 582:Core/u8g2/u8g2_font.c **** 
 1146              		.loc 1 582 0
 1147 00f2 0298     		ldr	r0, [sp, #8]
 1148 00f4 05B0     		add	sp, sp, #20
 1149              	.LCFI11:
 1150              		.cfi_remember_state
 1151              		.cfi_def_cfa_offset 36
 1152              		@ sp needed
 1153 00f6 BDE8F08F 		pop	{r4, r5, r6, r7, r8, r9, r10, fp, pc}
 1154              	.LVL162:
 1155              	.L55:
 1156              	.LCFI12:
 1157              		.cfi_restore_state
 1158              	.LBB4:
 529:Core/u8g2/u8g2_font.c **** 	    x0++;	/* shift down, because of assymetric boundaries for the interseciton test */
 1159              		.loc 1 529 0
 1160 00fa ABEB0901 		sub	r1, fp, r9
 1161 00fe C9B2     		uxtb	r1, r1
 1162              	.LVL163:
 530:Core/u8g2/u8g2_font.c **** 	    x1++;
ARM GAS  C:\Users\ASUS\AppData\Local\Temp\ccnpu2Hi.s 			page 41


 1163              		.loc 1 530 0
 1164 0100 0131     		adds	r1, r1, #1
 1165              	.LVL164:
 531:Core/u8g2/u8g2_font.c **** 	    y1 += decode->glyph_width;
 1166              		.loc 1 531 0
 1167 0102 0BF10103 		add	r3, fp, #1
 1168 0106 DBB2     		uxtb	r3, r3
 1169              	.LVL165:
 532:Core/u8g2/u8g2_font.c **** 	    break;
 1170              		.loc 1 532 0
 1171 0108 F8B2     		uxtb	r0, r7
 1172              	.LVL166:
 1173 010a 1044     		add	r0, r0, r2
 1174 010c C0B2     		uxtb	r0, r0
 1175              	.LVL167:
 530:Core/u8g2/u8g2_font.c **** 	    x1++;
 1176              		.loc 1 530 0
 1177 010e 5FFA81FB 		uxtb	fp, r1
 533:Core/u8g2/u8g2_font.c **** 	case 2:
 1178              		.loc 1 533 0
 1179 0112 BFE7     		b	.L52
 1180              	.LVL168:
 1181              	.L56:
 535:Core/u8g2/u8g2_font.c **** 	    x0++;	/* shift down, because of assymetric boundaries for the interseciton test */
 1182              		.loc 1 535 0
 1183 0114 F9B2     		uxtb	r1, r7
 1184 0116 ABEB0101 		sub	r1, fp, r1
 1185 011a C9B2     		uxtb	r1, r1
 1186              	.LVL169:
 536:Core/u8g2/u8g2_font.c **** 	    x1++;
 1187              		.loc 1 536 0
 1188 011c 0131     		adds	r1, r1, #1
 1189              	.LVL170:
 537:Core/u8g2/u8g2_font.c **** 	    y0 -= h;
 1190              		.loc 1 537 0
 1191 011e 0BF10103 		add	r3, fp, #1
 1192 0122 DBB2     		uxtb	r3, r3
 1193              	.LVL171:
 538:Core/u8g2/u8g2_font.c **** 	    y0++;	/* shift down, because of assymetric boundaries for the interseciton test */
 1194              		.loc 1 538 0
 1195 0124 A0EB0906 		sub	r6, r0, r9
 1196 0128 F6B2     		uxtb	r6, r6
 1197              	.LVL172:
 539:Core/u8g2/u8g2_font.c **** 	    y1++;
 1198              		.loc 1 539 0
 1199 012a 0136     		adds	r6, r6, #1
 1200              	.LVL173:
 540:Core/u8g2/u8g2_font.c **** 	    break;	  
 1201              		.loc 1 540 0
 1202 012c 0132     		adds	r2, r2, #1
 1203 012e D0B2     		uxtb	r0, r2
 1204              	.LVL174:
 539:Core/u8g2/u8g2_font.c **** 	    y1++;
 1205              		.loc 1 539 0
 1206 0130 F2B2     		uxtb	r2, r6
 536:Core/u8g2/u8g2_font.c **** 	    x1++;
 1207              		.loc 1 536 0
ARM GAS  C:\Users\ASUS\AppData\Local\Temp\ccnpu2Hi.s 			page 42


 1208 0132 5FFA81FB 		uxtb	fp, r1
 541:Core/u8g2/u8g2_font.c **** 	case 3:
 1209              		.loc 1 541 0
 1210 0136 ADE7     		b	.L52
 1211              	.LVL175:
 1212              	.L57:
 543:Core/u8g2/u8g2_font.c **** 	    y0 -= decode->glyph_width;
 1213              		.loc 1 543 0
 1214 0138 09EB0B03 		add	r3, r9, fp
 1215 013c DBB2     		uxtb	r3, r3
 1216              	.LVL176:
 544:Core/u8g2/u8g2_font.c **** 	    y0++;	/* shift down, because of assymetric boundaries for the interseciton test */
 1217              		.loc 1 544 0
 1218 013e F9B2     		uxtb	r1, r7
 1219 0140 411A     		subs	r1, r0, r1
 1220 0142 C9B2     		uxtb	r1, r1
 1221              	.LVL177:
 545:Core/u8g2/u8g2_font.c **** 	    y1++;
 1222              		.loc 1 545 0
 1223 0144 0131     		adds	r1, r1, #1
 1224              	.LVL178:
 546:Core/u8g2/u8g2_font.c **** 	    break;	  
 1225              		.loc 1 546 0
 1226 0146 0132     		adds	r2, r2, #1
 1227 0148 D0B2     		uxtb	r0, r2
 1228              	.LVL179:
 545:Core/u8g2/u8g2_font.c **** 	    y1++;
 1229              		.loc 1 545 0
 1230 014a CAB2     		uxtb	r2, r1
 547:Core/u8g2/u8g2_font.c ****       }
 1231              		.loc 1 547 0
 1232 014c A2E7     		b	.L52
 1233              	.LVL180:
 1234              	.L60:
 518:Core/u8g2/u8g2_font.c ****       y1 = y0;
 1235              		.loc 1 518 0
 1236 014e 5B46     		mov	r3, fp
 1237 0150 A0E7     		b	.L52
 1238              	.LBE4:
 1239              		.cfi_endproc
 1240              	.LFE15:
 1242              		.section	.text.u8g2_font_get_glyph_data,"ax",%progbits
 1243              		.align	1
 1244              		.global	u8g2_font_get_glyph_data
 1245              		.syntax unified
 1246              		.thumb
 1247              		.thumb_func
 1248              		.fpu softvfp
 1250              	u8g2_font_get_glyph_data:
 1251              	.LFB16:
 593:Core/u8g2/u8g2_font.c ****   const uint8_t *font = u8g2->font;
 1252              		.loc 1 593 0
 1253              		.cfi_startproc
 1254              		@ args = 0, pretend = 0, frame = 0
 1255              		@ frame_needed = 0, uses_anonymous_args = 0
 1256              	.LVL181:
 1257 0000 70B5     		push	{r4, r5, r6, lr}
ARM GAS  C:\Users\ASUS\AppData\Local\Temp\ccnpu2Hi.s 			page 43


 1258              	.LCFI13:
 1259              		.cfi_def_cfa_offset 16
 1260              		.cfi_offset 4, -16
 1261              		.cfi_offset 5, -12
 1262              		.cfi_offset 6, -8
 1263              		.cfi_offset 14, -4
 594:Core/u8g2/u8g2_font.c ****   font += U8G2_FONT_DATA_STRUCT_SIZE;
 1264              		.loc 1 594 0
 1265 0002 046D     		ldr	r4, [r0, #80]
 1266              	.LVL182:
 595:Core/u8g2/u8g2_font.c **** 
 1267              		.loc 1 595 0
 1268 0004 1734     		adds	r4, r4, #23
 1269              	.LVL183:
 598:Core/u8g2/u8g2_font.c ****   {
 1270              		.loc 1 598 0
 1271 0006 FF29     		cmp	r1, #255
 1272 0008 13D8     		bhi	.L63
 600:Core/u8g2/u8g2_font.c ****     {
 1273              		.loc 1 600 0
 1274 000a 6029     		cmp	r1, #96
 1275 000c 09D9     		bls	.L64
 602:Core/u8g2/u8g2_font.c ****     }
 1276              		.loc 1 602 0
 1277 000e B0F87C30 		ldrh	r3, [r0, #124]
 1278 0012 1C44     		add	r4, r4, r3
 1279              	.LVL184:
 1280              	.L68:
 611:Core/u8g2/u8g2_font.c **** 	break;
 1281              		.loc 1 611 0
 1282 0014 6378     		ldrb	r3, [r4, #1]	@ zero_extendqisi2
 1283 0016 4BB3     		cbz	r3, .L72
 613:Core/u8g2/u8g2_font.c ****       {
 1284              		.loc 1 613 0
 1285 0018 2278     		ldrb	r2, [r4]	@ zero_extendqisi2
 1286 001a 8A42     		cmp	r2, r1
 1287 001c 07D0     		beq	.L75
 617:Core/u8g2/u8g2_font.c ****     }
 1288              		.loc 1 617 0
 1289 001e 1C44     		add	r4, r4, r3
 1290              	.LVL185:
 611:Core/u8g2/u8g2_font.c **** 	break;
 1291              		.loc 1 611 0
 1292 0020 F8E7     		b	.L68
 1293              	.L64:
 604:Core/u8g2/u8g2_font.c ****     {
 1294              		.loc 1 604 0
 1295 0022 4029     		cmp	r1, #64
 1296 0024 F6D9     		bls	.L68
 606:Core/u8g2/u8g2_font.c ****     }
 1297              		.loc 1 606 0
 1298 0026 B0F87A30 		ldrh	r3, [r0, #122]
 1299 002a 1C44     		add	r4, r4, r3
 1300              	.LVL186:
 1301 002c F2E7     		b	.L68
 1302              	.L75:
 615:Core/u8g2/u8g2_font.c ****       }
ARM GAS  C:\Users\ASUS\AppData\Local\Temp\ccnpu2Hi.s 			page 44


 1303              		.loc 1 615 0
 1304 002e A01C     		adds	r0, r4, #2
 1305              	.LVL187:
 1306 0030 1DE0     		b	.L62
 1307              	.LVL188:
 1308              	.L63:
 1309 0032 0E46     		mov	r6, r1
 1310              	.LBB5:
 635:Core/u8g2/u8g2_font.c ****     unicode_lookup_table = font; 
 1311              		.loc 1 635 0
 1312 0034 B0F87E00 		ldrh	r0, [r0, #126]
 1313              	.LVL189:
 1314 0038 0444     		add	r4, r4, r0
 1315              	.LVL190:
 636:Core/u8g2/u8g2_font.c ****   
 1316              		.loc 1 636 0
 1317 003a 2546     		mov	r5, r4
 1318              	.LVL191:
 1319              	.L69:
 641:Core/u8g2/u8g2_font.c ****       e = u8g2_font_get_word(unicode_lookup_table, 2);
 1320              		.loc 1 641 0 discriminator 1
 1321 003c 0021     		movs	r1, #0
 1322 003e 2846     		mov	r0, r5
 1323 0040 FFF7FEFF 		bl	u8g2_font_get_word
 1324              	.LVL192:
 1325 0044 0444     		add	r4, r4, r0
 1326              	.LVL193:
 642:Core/u8g2/u8g2_font.c ****       unicode_lookup_table+=4;
 1327              		.loc 1 642 0 discriminator 1
 1328 0046 0221     		movs	r1, #2
 1329 0048 2846     		mov	r0, r5
 1330 004a FFF7FEFF 		bl	u8g2_font_get_word
 1331              	.LVL194:
 643:Core/u8g2/u8g2_font.c ****     } while( e < encoding );
 1332              		.loc 1 643 0 discriminator 1
 1333 004e 0435     		adds	r5, r5, #4
 1334              	.LVL195:
 644:Core/u8g2/u8g2_font.c ****     
 1335              		.loc 1 644 0 discriminator 1
 1336 0050 8642     		cmp	r6, r0
 1337 0052 F3D8     		bhi	.L69
 1338              	.LVL196:
 1339              	.L71:
 649:Core/u8g2/u8g2_font.c ****       e <<= 8;
 1340              		.loc 1 649 0
 1341 0054 2278     		ldrb	r2, [r4]	@ zero_extendqisi2
 1342              	.LVL197:
 651:Core/u8g2/u8g2_font.c ****   
 1343              		.loc 1 651 0
 1344 0056 6378     		ldrb	r3, [r4, #1]	@ zero_extendqisi2
 1345              	.LVL198:
 659:Core/u8g2/u8g2_font.c **** 	break;
 1346              		.loc 1 659 0
 1347 0058 53EA0223 		orrs	r3, r3, r2, lsl #8
 1348              	.LVL199:
 1349 005c 08D0     		beq	.L73
 662:Core/u8g2/u8g2_font.c ****       {
ARM GAS  C:\Users\ASUS\AppData\Local\Temp\ccnpu2Hi.s 			page 45


 1350              		.loc 1 662 0
 1351 005e 9E42     		cmp	r6, r3
 1352 0060 02D0     		beq	.L76
 671:Core/u8g2/u8g2_font.c ****     }  
 1353              		.loc 1 671 0
 1354 0062 A378     		ldrb	r3, [r4, #2]	@ zero_extendqisi2
 1355              	.LVL200:
 1356 0064 1C44     		add	r4, r4, r3
 1357              	.LVL201:
 649:Core/u8g2/u8g2_font.c ****       e <<= 8;
 1358              		.loc 1 649 0
 1359 0066 F5E7     		b	.L71
 1360              	.LVL202:
 1361              	.L76:
 669:Core/u8g2/u8g2_font.c ****       }
 1362              		.loc 1 669 0
 1363 0068 E01C     		adds	r0, r4, #3
 1364 006a 00E0     		b	.L62
 1365              	.LVL203:
 1366              	.L72:
 1367              	.LBE5:
 676:Core/u8g2/u8g2_font.c **** }
 1368              		.loc 1 676 0
 1369 006c 0020     		movs	r0, #0
 1370              	.LVL204:
 1371              	.L62:
 677:Core/u8g2/u8g2_font.c **** 
 1372              		.loc 1 677 0
 1373 006e 70BD     		pop	{r4, r5, r6, pc}
 1374              	.LVL205:
 1375              	.L73:
 676:Core/u8g2/u8g2_font.c **** }
 1376              		.loc 1 676 0
 1377 0070 0020     		movs	r0, #0
 1378 0072 FCE7     		b	.L62
 1379              		.cfi_endproc
 1380              	.LFE16:
 1382              		.section	.text.u8g2_font_draw_glyph,"ax",%progbits
 1383              		.align	1
 1384              		.syntax unified
 1385              		.thumb
 1386              		.thumb_func
 1387              		.fpu softvfp
 1389              	u8g2_font_draw_glyph:
 1390              	.LFB17:
 680:Core/u8g2/u8g2_font.c ****   u8g2_uint_t dx = 0;
 1391              		.loc 1 680 0
 1392              		.cfi_startproc
 1393              		@ args = 0, pretend = 0, frame = 0
 1394              		@ frame_needed = 0, uses_anonymous_args = 0
 1395              	.LVL206:
 1396 0000 10B5     		push	{r4, lr}
 1397              	.LCFI14:
 1398              		.cfi_def_cfa_offset 8
 1399              		.cfi_offset 4, -8
 1400              		.cfi_offset 14, -4
 1401 0002 0446     		mov	r4, r0
ARM GAS  C:\Users\ASUS\AppData\Local\Temp\ccnpu2Hi.s 			page 46


 1402              	.LVL207:
 682:Core/u8g2/u8g2_font.c ****   u8g2->font_decode.target_y = y;
 1403              		.loc 1 682 0
 1404 0004 80F85C10 		strb	r1, [r0, #92]
 683:Core/u8g2/u8g2_font.c ****   //u8g2->font_decode.is_transparent = is_transparent; this is already set
 1405              		.loc 1 683 0
 1406 0008 80F85D20 		strb	r2, [r0, #93]
 686:Core/u8g2/u8g2_font.c ****   if ( glyph_data != NULL )
 1407              		.loc 1 686 0
 1408 000c 1946     		mov	r1, r3
 1409              	.LVL208:
 1410 000e FFF7FEFF 		bl	u8g2_font_get_glyph_data
 1411              	.LVL209:
 687:Core/u8g2/u8g2_font.c ****   {
 1412              		.loc 1 687 0
 1413 0012 28B1     		cbz	r0, .L79
 1414 0014 0146     		mov	r1, r0
 689:Core/u8g2/u8g2_font.c ****   }
 1415              		.loc 1 689 0
 1416 0016 2046     		mov	r0, r4
 1417              	.LVL210:
 1418 0018 FFF7FEFF 		bl	u8g2_font_decode_glyph
 1419              	.LVL211:
 1420 001c C0B2     		uxtb	r0, r0
 1421              	.LVL212:
 1422              	.L78:
 692:Core/u8g2/u8g2_font.c **** 
 1423              		.loc 1 692 0
 1424 001e 10BD     		pop	{r4, pc}
 1425              	.LVL213:
 1426              	.L79:
 681:Core/u8g2/u8g2_font.c ****   u8g2->font_decode.target_x = x;
 1427              		.loc 1 681 0
 1428 0020 0020     		movs	r0, #0
 1429              	.LVL214:
 1430 0022 FCE7     		b	.L78
 1431              		.cfi_endproc
 1432              	.LFE17:
 1434              		.section	.text.u8g2_GetGlyphHorizontalProperties,"ax",%progbits
 1435              		.align	1
 1436              		.syntax unified
 1437              		.thumb
 1438              		.thumb_func
 1439              		.fpu softvfp
 1441              	u8g2_GetGlyphHorizontalProperties:
 1442              	.LFB41:
1021:Core/u8g2/u8g2_font.c **** 
1022:Core/u8g2/u8g2_font.c **** void u8g2_SetFontPosCenter(u8g2_t *u8g2)
1023:Core/u8g2/u8g2_font.c **** {
1024:Core/u8g2/u8g2_font.c ****   u8g2->font_calc_vref = u8g2_font_calc_vref_center;
1025:Core/u8g2/u8g2_font.c **** }
1026:Core/u8g2/u8g2_font.c **** 
1027:Core/u8g2/u8g2_font.c **** /*===============================================*/
1028:Core/u8g2/u8g2_font.c **** 
1029:Core/u8g2/u8g2_font.c **** void u8g2_SetFont(u8g2_t *u8g2, const uint8_t  *font)
1030:Core/u8g2/u8g2_font.c **** {
1031:Core/u8g2/u8g2_font.c ****   if ( u8g2->font != font )
ARM GAS  C:\Users\ASUS\AppData\Local\Temp\ccnpu2Hi.s 			page 47


1032:Core/u8g2/u8g2_font.c ****   {
1033:Core/u8g2/u8g2_font.c **** //#ifdef  __unix__
1034:Core/u8g2/u8g2_font.c **** //	u8g2->last_font_data = NULL;
1035:Core/u8g2/u8g2_font.c **** //	u8g2->last_unicode = 0x0ffff;
1036:Core/u8g2/u8g2_font.c **** //#endif 
1037:Core/u8g2/u8g2_font.c ****     u8g2->font = font;
1038:Core/u8g2/u8g2_font.c ****     u8g2_read_font_info(&(u8g2->font_info), font);
1039:Core/u8g2/u8g2_font.c ****     u8g2_UpdateRefHeight(u8g2);
1040:Core/u8g2/u8g2_font.c ****     /* u8g2_SetFontPosBaseline(u8g2); */ /* removed with issue 195 */
1041:Core/u8g2/u8g2_font.c ****   }
1042:Core/u8g2/u8g2_font.c **** }
1043:Core/u8g2/u8g2_font.c **** 
1044:Core/u8g2/u8g2_font.c **** /*===============================================*/
1045:Core/u8g2/u8g2_font.c **** 
1046:Core/u8g2/u8g2_font.c **** /* string calculation is stilll not 100% perfect as it addes the initial string offset to the overa
1047:Core/u8g2/u8g2_font.c **** static u8g2_uint_t u8g2_string_width(u8g2_t *u8g2, const char *str) U8G2_NOINLINE;
1048:Core/u8g2/u8g2_font.c **** static u8g2_uint_t u8g2_string_width(u8g2_t *u8g2, const char *str)
1049:Core/u8g2/u8g2_font.c **** {
1050:Core/u8g2/u8g2_font.c ****   uint16_t e;
1051:Core/u8g2/u8g2_font.c ****   u8g2_uint_t  w, dx;
1052:Core/u8g2/u8g2_font.c ****   
1053:Core/u8g2/u8g2_font.c ****   u8g2->font_decode.glyph_width = 0;
1054:Core/u8g2/u8g2_font.c ****   u8x8_utf8_init(u8g2_GetU8x8(u8g2));
1055:Core/u8g2/u8g2_font.c ****   
1056:Core/u8g2/u8g2_font.c ****   /* reset the total width to zero, this will be expanded during calculation */
1057:Core/u8g2/u8g2_font.c ****   w = 0;
1058:Core/u8g2/u8g2_font.c ****   dx = 0;
1059:Core/u8g2/u8g2_font.c **** 
1060:Core/u8g2/u8g2_font.c ****   // printf("str=<%s>\n", str);
1061:Core/u8g2/u8g2_font.c **** 	
1062:Core/u8g2/u8g2_font.c ****   for(;;)
1063:Core/u8g2/u8g2_font.c ****   {
1064:Core/u8g2/u8g2_font.c ****     e = u8g2->u8x8.next_cb(u8g2_GetU8x8(u8g2), (uint8_t)*str);
1065:Core/u8g2/u8g2_font.c ****     if ( e == 0x0ffff )
1066:Core/u8g2/u8g2_font.c ****       break;
1067:Core/u8g2/u8g2_font.c ****     str++;
1068:Core/u8g2/u8g2_font.c ****     if ( e != 0x0fffe )
1069:Core/u8g2/u8g2_font.c ****     {
1070:Core/u8g2/u8g2_font.c ****       dx = u8g2_GetGlyphWidth(u8g2, e);		/* delta x value of the glyph */
1071:Core/u8g2/u8g2_font.c ****       w += dx;
1072:Core/u8g2/u8g2_font.c ****     }
1073:Core/u8g2/u8g2_font.c ****   }
1074:Core/u8g2/u8g2_font.c ****   
1075:Core/u8g2/u8g2_font.c ****   /* adjust the last glyph, check for issue #16: do not adjust if width is 0 */
1076:Core/u8g2/u8g2_font.c ****   if ( u8g2->font_decode.glyph_width != 0 )
1077:Core/u8g2/u8g2_font.c ****   {
1078:Core/u8g2/u8g2_font.c ****     w -= dx;
1079:Core/u8g2/u8g2_font.c ****     w += u8g2->font_decode.glyph_width;  /* the real pixel width of the glyph, sideeffect of GetGly
1080:Core/u8g2/u8g2_font.c ****     /* issue #46: we have to add the x offset also */
1081:Core/u8g2/u8g2_font.c ****     w += u8g2->glyph_x_offset;	/* this value is set as a side effect of u8g2_GetGlyphWidth() */
1082:Core/u8g2/u8g2_font.c ****   }
1083:Core/u8g2/u8g2_font.c ****   // printf("w=%d \n", w);
1084:Core/u8g2/u8g2_font.c ****   
1085:Core/u8g2/u8g2_font.c ****   return w;  
1086:Core/u8g2/u8g2_font.c **** }
1087:Core/u8g2/u8g2_font.c **** 
1088:Core/u8g2/u8g2_font.c **** static void u8g2_GetGlyphHorizontalProperties(u8g2_t *u8g2, uint16_t requested_encoding, uint8_t *w
ARM GAS  C:\Users\ASUS\AppData\Local\Temp\ccnpu2Hi.s 			page 48


1089:Core/u8g2/u8g2_font.c **** {
 1443              		.loc 1 1089 0
 1444              		.cfi_startproc
 1445              		@ args = 4, pretend = 0, frame = 0
 1446              		@ frame_needed = 0, uses_anonymous_args = 0
 1447              	.LVL215:
 1448 0000 70B5     		push	{r4, r5, r6, lr}
 1449              	.LCFI15:
 1450              		.cfi_def_cfa_offset 16
 1451              		.cfi_offset 4, -16
 1452              		.cfi_offset 5, -12
 1453              		.cfi_offset 6, -8
 1454              		.cfi_offset 14, -4
 1455 0002 0446     		mov	r4, r0
 1456 0004 1546     		mov	r5, r2
 1457 0006 1E46     		mov	r6, r3
1090:Core/u8g2/u8g2_font.c ****   const uint8_t *glyph_data = u8g2_font_get_glyph_data(u8g2, requested_encoding);
 1458              		.loc 1 1090 0
 1459 0008 FFF7FEFF 		bl	u8g2_font_get_glyph_data
 1460              	.LVL216:
1091:Core/u8g2/u8g2_font.c ****   if ( glyph_data == NULL )
 1461              		.loc 1 1091 0
 1462 000c D0B1     		cbz	r0, .L81
 1463 000e 0146     		mov	r1, r0
1092:Core/u8g2/u8g2_font.c ****     return; 
1093:Core/u8g2/u8g2_font.c ****   
1094:Core/u8g2/u8g2_font.c ****   u8g2_font_setup_decode(u8g2, glyph_data);
 1464              		.loc 1 1094 0
 1465 0010 2046     		mov	r0, r4
 1466              	.LVL217:
 1467 0012 FFF7FEFF 		bl	u8g2_font_setup_decode
 1468              	.LVL218:
1095:Core/u8g2/u8g2_font.c ****   *w = u8g2->font_decode.glyph_width;
 1469              		.loc 1 1095 0
 1470 0016 94F86030 		ldrb	r3, [r4, #96]	@ zero_extendqisi2
 1471 001a 2B70     		strb	r3, [r5]
1096:Core/u8g2/u8g2_font.c ****   *ox =  u8g2_font_decode_get_signed_bits(&(u8g2->font_decode), u8g2->font_info.bits_per_char_x);
 1472              		.loc 1 1096 0
 1473 001c 04F15805 		add	r5, r4, #88
 1474              	.LVL219:
 1475 0020 94F86E10 		ldrb	r1, [r4, #110]	@ zero_extendqisi2
 1476 0024 2846     		mov	r0, r5
 1477 0026 FFF7FEFF 		bl	u8g2_font_decode_get_signed_bits
 1478              	.LVL220:
 1479 002a 3070     		strb	r0, [r6]
1097:Core/u8g2/u8g2_font.c ****   u8g2_font_decode_get_signed_bits(&(u8g2->font_decode), u8g2->font_info.bits_per_char_y);
 1480              		.loc 1 1097 0
 1481 002c 94F86F10 		ldrb	r1, [r4, #111]	@ zero_extendqisi2
 1482 0030 2846     		mov	r0, r5
 1483 0032 FFF7FEFF 		bl	u8g2_font_decode_get_signed_bits
 1484              	.LVL221:
1098:Core/u8g2/u8g2_font.c ****   *dx = u8g2_font_decode_get_signed_bits(&(u8g2->font_decode), u8g2->font_info.bits_per_delta_x);
 1485              		.loc 1 1098 0
 1486 0036 94F87010 		ldrb	r1, [r4, #112]	@ zero_extendqisi2
 1487 003a 2846     		mov	r0, r5
 1488 003c FFF7FEFF 		bl	u8g2_font_decode_get_signed_bits
 1489              	.LVL222:
ARM GAS  C:\Users\ASUS\AppData\Local\Temp\ccnpu2Hi.s 			page 49


 1490 0040 049B     		ldr	r3, [sp, #16]
 1491 0042 1870     		strb	r0, [r3]
 1492              	.L81:
1099:Core/u8g2/u8g2_font.c **** }
 1493              		.loc 1 1099 0
 1494 0044 70BD     		pop	{r4, r5, r6, pc}
 1495              		.cfi_endproc
 1496              	.LFE41:
 1498              		.section	.text.u8g2_calculate_exact_string_width,"ax",%progbits
 1499              		.align	1
 1500              		.syntax unified
 1501              		.thumb
 1502              		.thumb_func
 1503              		.fpu softvfp
 1505              	u8g2_calculate_exact_string_width:
 1506              	.LFB43:
1100:Core/u8g2/u8g2_font.c **** 
1101:Core/u8g2/u8g2_font.c **** /* u8g compatible GetStrX function */
1102:Core/u8g2/u8g2_font.c **** int8_t u8g2_GetStrX(u8g2_t *u8g2, const char *s)
1103:Core/u8g2/u8g2_font.c **** {
1104:Core/u8g2/u8g2_font.c ****   uint8_t w;
1105:Core/u8g2/u8g2_font.c ****   int8_t ox, dx;
1106:Core/u8g2/u8g2_font.c ****   u8g2_GetGlyphHorizontalProperties(u8g2, *s, &w, &ox, &dx);
1107:Core/u8g2/u8g2_font.c ****   return ox;
1108:Core/u8g2/u8g2_font.c **** }
1109:Core/u8g2/u8g2_font.c **** 
1110:Core/u8g2/u8g2_font.c **** 
1111:Core/u8g2/u8g2_font.c **** 
1112:Core/u8g2/u8g2_font.c **** static u8g2_uint_t u8g2_calculate_exact_string_width(u8g2_t *u8g2, const char *str)
1113:Core/u8g2/u8g2_font.c **** {
 1507              		.loc 1 1113 0
 1508              		.cfi_startproc
 1509              		@ args = 0, pretend = 0, frame = 8
 1510              		@ frame_needed = 0, uses_anonymous_args = 0
 1511              	.LVL223:
 1512 0000 70B5     		push	{r4, r5, r6, lr}
 1513              	.LCFI16:
 1514              		.cfi_def_cfa_offset 16
 1515              		.cfi_offset 4, -16
 1516              		.cfi_offset 5, -12
 1517              		.cfi_offset 6, -8
 1518              		.cfi_offset 14, -4
 1519 0002 84B0     		sub	sp, sp, #16
 1520              	.LCFI17:
 1521              		.cfi_def_cfa_offset 32
 1522 0004 0446     		mov	r4, r0
 1523 0006 0D46     		mov	r5, r1
 1524              	.LVL224:
 1525              	.L85:
1114:Core/u8g2/u8g2_font.c **** 
1115:Core/u8g2/u8g2_font.c ****   u8g2_uint_t  w;
1116:Core/u8g2/u8g2_font.c ****   uint16_t enc;
1117:Core/u8g2/u8g2_font.c ****   uint8_t gw; 
1118:Core/u8g2/u8g2_font.c ****   int8_t ox, dx;
1119:Core/u8g2/u8g2_font.c ****   
1120:Core/u8g2/u8g2_font.c ****   /* reset the total minimal width to zero, this will be expanded during calculation */
1121:Core/u8g2/u8g2_font.c ****   w = 0;
ARM GAS  C:\Users\ASUS\AppData\Local\Temp\ccnpu2Hi.s 			page 50


1122:Core/u8g2/u8g2_font.c ****     
1123:Core/u8g2/u8g2_font.c ****   
1124:Core/u8g2/u8g2_font.c ****   /* check for empty string, width is already 0 */
1125:Core/u8g2/u8g2_font.c ****   do
1126:Core/u8g2/u8g2_font.c ****   {
1127:Core/u8g2/u8g2_font.c ****     enc = u8g2->u8x8.next_cb(u8g2_GetU8x8(u8g2), (uint8_t)*str);
 1526              		.loc 1 1127 0 discriminator 1
 1527 0008 6368     		ldr	r3, [r4, #4]
 1528 000a 15F8011B 		ldrb	r1, [r5], #1	@ zero_extendqisi2
 1529              	.LVL225:
 1530 000e 2046     		mov	r0, r4
 1531 0010 9847     		blx	r3
 1532              	.LVL226:
1128:Core/u8g2/u8g2_font.c ****     str++;
1129:Core/u8g2/u8g2_font.c ****   } while( enc == 0x0fffe );
 1533              		.loc 1 1129 0 discriminator 1
 1534 0012 4FF6FE73 		movw	r3, #65534
 1535 0016 9842     		cmp	r0, r3
 1536 0018 F6D0     		beq	.L85
1130:Core/u8g2/u8g2_font.c ****   
1131:Core/u8g2/u8g2_font.c ****   if ( enc== 0x0ffff )
 1537              		.loc 1 1131 0
 1538 001a 4FF6FF73 		movw	r3, #65535
 1539 001e 9842     		cmp	r0, r3
 1540 0020 3BD0     		beq	.L91
1132:Core/u8g2/u8g2_font.c ****      return w;
1133:Core/u8g2/u8g2_font.c ****   
1134:Core/u8g2/u8g2_font.c ****   /* get the glyph information of the first char. This must be valid, because we already checked fo
1135:Core/u8g2/u8g2_font.c ****   /* if *s is not inside the font, then the cached parameters of the glyph are all zero */
1136:Core/u8g2/u8g2_font.c ****   u8g2_GetGlyphHorizontalProperties(u8g2, enc, &gw, &ox, &dx);  
 1541              		.loc 1 1136 0
 1542 0022 0DF10D03 		add	r3, sp, #13
 1543 0026 0093     		str	r3, [sp]
 1544 0028 0DF10E03 		add	r3, sp, #14
 1545 002c 0DF10F02 		add	r2, sp, #15
 1546 0030 0146     		mov	r1, r0
 1547 0032 2046     		mov	r0, r4
 1548              	.LVL227:
 1549 0034 FFF7FEFF 		bl	u8g2_GetGlyphHorizontalProperties
 1550              	.LVL228:
1137:Core/u8g2/u8g2_font.c **** 
1138:Core/u8g2/u8g2_font.c ****   /* strlen(s) == 1:       width = width(s[0]) */
1139:Core/u8g2/u8g2_font.c ****   /* strlen(s) == 2:       width = - offx(s[0]) + deltax(s[0]) + offx(s[1]) + width(s[1]) */
1140:Core/u8g2/u8g2_font.c ****   /* strlen(s) == 3:       width = - offx(s[0]) + deltax(s[0]) + deltax(s[1]) + offx(s[2]) + width(
1141:Core/u8g2/u8g2_font.c ****   
1142:Core/u8g2/u8g2_font.c ****   /* assume that the string has size 2 or more, than start with negative offset-x */
1143:Core/u8g2/u8g2_font.c ****   /* for string with size 1, this will be nullified after the loop */
1144:Core/u8g2/u8g2_font.c ****   w = -ox;  
 1551              		.loc 1 1144 0
 1552 0038 9DF80E30 		ldrb	r3, [sp, #14]	@ zero_extendqisi2
 1553 003c 5B42     		negs	r3, r3
 1554 003e DEB2     		uxtb	r6, r3
 1555              	.LVL229:
 1556              	.L87:
1145:Core/u8g2/u8g2_font.c ****   for(;;)
1146:Core/u8g2/u8g2_font.c ****   {
1147:Core/u8g2/u8g2_font.c ****     
ARM GAS  C:\Users\ASUS\AppData\Local\Temp\ccnpu2Hi.s 			page 51


1148:Core/u8g2/u8g2_font.c ****     /* check and stop if the end of the string is reached */
1149:Core/u8g2/u8g2_font.c ****     do
1150:Core/u8g2/u8g2_font.c ****     {
1151:Core/u8g2/u8g2_font.c ****       enc = u8g2->u8x8.next_cb(u8g2_GetU8x8(u8g2), (uint8_t)*str);
 1557              		.loc 1 1151 0 discriminator 1
 1558 0040 6368     		ldr	r3, [r4, #4]
 1559 0042 15F8011B 		ldrb	r1, [r5], #1	@ zero_extendqisi2
 1560              	.LVL230:
 1561 0046 2046     		mov	r0, r4
 1562 0048 9847     		blx	r3
 1563              	.LVL231:
1152:Core/u8g2/u8g2_font.c ****       str++;
1153:Core/u8g2/u8g2_font.c ****     } while( enc == 0x0fffe );
 1564              		.loc 1 1153 0 discriminator 1
 1565 004a 4FF6FE73 		movw	r3, #65534
 1566 004e 9842     		cmp	r0, r3
 1567 0050 F6D0     		beq	.L87
1154:Core/u8g2/u8g2_font.c ****     if ( enc== 0x0ffff )
 1568              		.loc 1 1154 0
 1569 0052 4FF6FF73 		movw	r3, #65535
 1570 0056 9842     		cmp	r0, r3
 1571 0058 0FD0     		beq	.L89
1155:Core/u8g2/u8g2_font.c ****       break;
1156:Core/u8g2/u8g2_font.c **** 
1157:Core/u8g2/u8g2_font.c ****     u8g2_GetGlyphHorizontalProperties(u8g2, enc, &gw, &ox, &dx);  
 1572              		.loc 1 1157 0
 1573 005a 0DF10D03 		add	r3, sp, #13
 1574 005e 0093     		str	r3, [sp]
 1575 0060 0DF10E03 		add	r3, sp, #14
 1576 0064 0DF10F02 		add	r2, sp, #15
 1577 0068 0146     		mov	r1, r0
 1578 006a 2046     		mov	r0, r4
 1579              	.LVL232:
 1580 006c FFF7FEFF 		bl	u8g2_GetGlyphHorizontalProperties
 1581              	.LVL233:
1158:Core/u8g2/u8g2_font.c ****     
1159:Core/u8g2/u8g2_font.c ****     /* if there are still more characters, add the delta to the next glyph */
1160:Core/u8g2/u8g2_font.c ****     w += dx;    
 1582              		.loc 1 1160 0
 1583 0070 9DF80D30 		ldrb	r3, [sp, #13]	@ zero_extendqisi2
 1584 0074 3344     		add	r3, r3, r6
 1585 0076 DEB2     		uxtb	r6, r3
 1586              	.LVL234:
1145:Core/u8g2/u8g2_font.c ****   {
 1587              		.loc 1 1145 0
 1588 0078 E2E7     		b	.L87
 1589              	.LVL235:
 1590              	.L89:
1161:Core/u8g2/u8g2_font.c ****   }
1162:Core/u8g2/u8g2_font.c ****   
1163:Core/u8g2/u8g2_font.c ****   /* finally calculate the width of the last char */
1164:Core/u8g2/u8g2_font.c ****   /* here is another exception, if the last char is a black, use the dx value instead */
1165:Core/u8g2/u8g2_font.c ****   if ( enc != ' ' )
 1591              		.loc 1 1165 0
 1592 007a 2028     		cmp	r0, #32
 1593 007c 08D0     		beq	.L90
1166:Core/u8g2/u8g2_font.c ****   {
ARM GAS  C:\Users\ASUS\AppData\Local\Temp\ccnpu2Hi.s 			page 52


1167:Core/u8g2/u8g2_font.c ****     /* if g was not updated in the for loop (strlen() == 1), then the initial offset x gets removed
1168:Core/u8g2/u8g2_font.c ****     w += gw;
 1594              		.loc 1 1168 0
 1595 007e 9DF80F30 		ldrb	r3, [sp, #15]	@ zero_extendqisi2
 1596 0082 3344     		add	r3, r3, r6
 1597 0084 DBB2     		uxtb	r3, r3
 1598              	.LVL236:
1169:Core/u8g2/u8g2_font.c ****     w += ox;
 1599              		.loc 1 1169 0
 1600 0086 9DF80E00 		ldrb	r0, [sp, #14]	@ zero_extendqisi2
 1601              	.LVL237:
 1602 008a 0344     		add	r3, r3, r0
 1603              	.LVL238:
 1604 008c D8B2     		uxtb	r0, r3
 1605              	.LVL239:
 1606 008e 05E0     		b	.L86
 1607              	.LVL240:
 1608              	.L90:
1170:Core/u8g2/u8g2_font.c ****   }
1171:Core/u8g2/u8g2_font.c ****   else
1172:Core/u8g2/u8g2_font.c ****   {
1173:Core/u8g2/u8g2_font.c ****     w += dx;
 1609              		.loc 1 1173 0
 1610 0090 9DF80D30 		ldrb	r3, [sp, #13]	@ zero_extendqisi2
 1611 0094 3344     		add	r3, r3, r6
 1612 0096 D8B2     		uxtb	r0, r3
 1613              	.LVL241:
 1614 0098 00E0     		b	.L86
 1615              	.LVL242:
 1616              	.L91:
1132:Core/u8g2/u8g2_font.c ****   
 1617              		.loc 1 1132 0
 1618 009a 0020     		movs	r0, #0
 1619              	.LVL243:
 1620              	.L86:
1174:Core/u8g2/u8g2_font.c ****   }
1175:Core/u8g2/u8g2_font.c ****   
1176:Core/u8g2/u8g2_font.c ****   
1177:Core/u8g2/u8g2_font.c ****   return w;
1178:Core/u8g2/u8g2_font.c **** 	
1179:Core/u8g2/u8g2_font.c **** }
 1621              		.loc 1 1179 0
 1622 009c 04B0     		add	sp, sp, #16
 1623              	.LCFI18:
 1624              		.cfi_def_cfa_offset 16
 1625              		@ sp needed
 1626 009e 70BD     		pop	{r4, r5, r6, pc}
 1627              		.cfi_endproc
 1628              	.LFE43:
 1630              		.section	.text.u8g2_IsGlyph,"ax",%progbits
 1631              		.align	1
 1632              		.global	u8g2_IsGlyph
 1633              		.syntax unified
 1634              		.thumb
 1635              		.thumb_func
 1636              		.fpu softvfp
 1638              	u8g2_IsGlyph:
ARM GAS  C:\Users\ASUS\AppData\Local\Temp\ccnpu2Hi.s 			page 53


 1639              	.LFB18:
 697:Core/u8g2/u8g2_font.c ****   /* updated to new code */
 1640              		.loc 1 697 0
 1641              		.cfi_startproc
 1642              		@ args = 0, pretend = 0, frame = 0
 1643              		@ frame_needed = 0, uses_anonymous_args = 0
 1644              	.LVL244:
 1645 0000 08B5     		push	{r3, lr}
 1646              	.LCFI19:
 1647              		.cfi_def_cfa_offset 8
 1648              		.cfi_offset 3, -8
 1649              		.cfi_offset 14, -4
 699:Core/u8g2/u8g2_font.c ****     return 1;
 1650              		.loc 1 699 0
 1651 0002 FFF7FEFF 		bl	u8g2_font_get_glyph_data
 1652              	.LVL245:
 1653 0006 08B1     		cbz	r0, .L95
 700:Core/u8g2/u8g2_font.c ****   return 0;
 1654              		.loc 1 700 0
 1655 0008 0120     		movs	r0, #1
 1656              	.L94:
 702:Core/u8g2/u8g2_font.c **** 
 1657              		.loc 1 702 0
 1658 000a 08BD     		pop	{r3, pc}
 1659              	.L95:
 701:Core/u8g2/u8g2_font.c **** }
 1660              		.loc 1 701 0
 1661 000c 0020     		movs	r0, #0
 1662 000e FCE7     		b	.L94
 1663              		.cfi_endproc
 1664              	.LFE18:
 1666              		.section	.text.u8g2_GetGlyphWidth,"ax",%progbits
 1667              		.align	1
 1668              		.global	u8g2_GetGlyphWidth
 1669              		.syntax unified
 1670              		.thumb
 1671              		.thumb_func
 1672              		.fpu softvfp
 1674              	u8g2_GetGlyphWidth:
 1675              	.LFB19:
 706:Core/u8g2/u8g2_font.c ****   const uint8_t *glyph_data = u8g2_font_get_glyph_data(u8g2, requested_encoding);
 1676              		.loc 1 706 0
 1677              		.cfi_startproc
 1678              		@ args = 0, pretend = 0, frame = 0
 1679              		@ frame_needed = 0, uses_anonymous_args = 0
 1680              	.LVL246:
 1681 0000 38B5     		push	{r3, r4, r5, lr}
 1682              	.LCFI20:
 1683              		.cfi_def_cfa_offset 16
 1684              		.cfi_offset 3, -16
 1685              		.cfi_offset 4, -12
 1686              		.cfi_offset 5, -8
 1687              		.cfi_offset 14, -4
 1688 0002 0446     		mov	r4, r0
 707:Core/u8g2/u8g2_font.c ****   if ( glyph_data == NULL )
 1689              		.loc 1 707 0
 1690 0004 FFF7FEFF 		bl	u8g2_font_get_glyph_data
ARM GAS  C:\Users\ASUS\AppData\Local\Temp\ccnpu2Hi.s 			page 54


 1691              	.LVL247:
 708:Core/u8g2/u8g2_font.c ****     return 0; 
 1692              		.loc 1 708 0
 1693 0008 B8B1     		cbz	r0, .L99
 1694 000a 0146     		mov	r1, r0
 711:Core/u8g2/u8g2_font.c ****   u8g2->glyph_x_offset = u8g2_font_decode_get_signed_bits(&(u8g2->font_decode), u8g2->font_info.bit
 1695              		.loc 1 711 0
 1696 000c 2046     		mov	r0, r4
 1697              	.LVL248:
 1698 000e FFF7FEFF 		bl	u8g2_font_setup_decode
 1699              	.LVL249:
 712:Core/u8g2/u8g2_font.c ****   u8g2_font_decode_get_signed_bits(&(u8g2->font_decode), u8g2->font_info.bits_per_char_y);
 1700              		.loc 1 712 0
 1701 0012 04F15805 		add	r5, r4, #88
 1702 0016 94F86E10 		ldrb	r1, [r4, #110]	@ zero_extendqisi2
 1703 001a 2846     		mov	r0, r5
 1704 001c FFF7FEFF 		bl	u8g2_font_decode_get_signed_bits
 1705              	.LVL250:
 1706 0020 84F88400 		strb	r0, [r4, #132]
 713:Core/u8g2/u8g2_font.c ****   
 1707              		.loc 1 713 0
 1708 0024 94F86F10 		ldrb	r1, [r4, #111]	@ zero_extendqisi2
 1709 0028 2846     		mov	r0, r5
 1710 002a FFF7FEFF 		bl	u8g2_font_decode_get_signed_bits
 1711              	.LVL251:
 717:Core/u8g2/u8g2_font.c **** }
 1712              		.loc 1 717 0
 1713 002e 94F87010 		ldrb	r1, [r4, #112]	@ zero_extendqisi2
 1714 0032 2846     		mov	r0, r5
 1715 0034 FFF7FEFF 		bl	u8g2_font_decode_get_signed_bits
 1716              	.LVL252:
 1717              	.L98:
 718:Core/u8g2/u8g2_font.c **** 
 1718              		.loc 1 718 0
 1719 0038 38BD     		pop	{r3, r4, r5, pc}
 1720              	.LVL253:
 1721              	.L99:
 709:Core/u8g2/u8g2_font.c ****   
 1722              		.loc 1 709 0
 1723 003a 0020     		movs	r0, #0
 1724              	.LVL254:
 1725 003c FCE7     		b	.L98
 1726              		.cfi_endproc
 1727              	.LFE19:
 1729              		.section	.text.u8g2_string_width,"ax",%progbits
 1730              		.align	1
 1731              		.syntax unified
 1732              		.thumb
 1733              		.thumb_func
 1734              		.fpu softvfp
 1736              	u8g2_string_width:
 1737              	.LFB40:
1049:Core/u8g2/u8g2_font.c ****   uint16_t e;
 1738              		.loc 1 1049 0
 1739              		.cfi_startproc
 1740              		@ args = 0, pretend = 0, frame = 0
 1741              		@ frame_needed = 0, uses_anonymous_args = 0
ARM GAS  C:\Users\ASUS\AppData\Local\Temp\ccnpu2Hi.s 			page 55


 1742              	.LVL255:
 1743 0000 F8B5     		push	{r3, r4, r5, r6, r7, lr}
 1744              	.LCFI21:
 1745              		.cfi_def_cfa_offset 24
 1746              		.cfi_offset 3, -24
 1747              		.cfi_offset 4, -20
 1748              		.cfi_offset 5, -16
 1749              		.cfi_offset 6, -12
 1750              		.cfi_offset 7, -8
 1751              		.cfi_offset 14, -4
 1752 0002 0546     		mov	r5, r0
 1753 0004 0E46     		mov	r6, r1
1053:Core/u8g2/u8g2_font.c ****   u8x8_utf8_init(u8g2_GetU8x8(u8g2));
 1754              		.loc 1 1053 0
 1755 0006 0024     		movs	r4, #0
 1756 0008 80F86040 		strb	r4, [r0, #96]
1054:Core/u8g2/u8g2_font.c ****   
 1757              		.loc 1 1054 0
 1758 000c FFF7FEFF 		bl	u8x8_utf8_init
 1759              	.LVL256:
1058:Core/u8g2/u8g2_font.c **** 
 1760              		.loc 1 1058 0
 1761 0010 2746     		mov	r7, r4
 1762              	.LVL257:
 1763              	.L102:
1064:Core/u8g2/u8g2_font.c ****     if ( e == 0x0ffff )
 1764              		.loc 1 1064 0
 1765 0012 6B68     		ldr	r3, [r5, #4]
 1766 0014 3178     		ldrb	r1, [r6]	@ zero_extendqisi2
 1767 0016 2846     		mov	r0, r5
 1768 0018 9847     		blx	r3
 1769              	.LVL258:
1065:Core/u8g2/u8g2_font.c ****       break;
 1770              		.loc 1 1065 0
 1771 001a 4FF6FF73 		movw	r3, #65535
 1772 001e 9842     		cmp	r0, r3
 1773 0020 0CD0     		beq	.L103
1067:Core/u8g2/u8g2_font.c ****     if ( e != 0x0fffe )
 1774              		.loc 1 1067 0
 1775 0022 0136     		adds	r6, r6, #1
 1776              	.LVL259:
1068:Core/u8g2/u8g2_font.c ****     {
 1777              		.loc 1 1068 0
 1778 0024 4FF6FE73 		movw	r3, #65534
 1779 0028 9842     		cmp	r0, r3
 1780 002a F2D0     		beq	.L102
1070:Core/u8g2/u8g2_font.c ****       w += dx;
 1781              		.loc 1 1070 0
 1782 002c 0146     		mov	r1, r0
 1783 002e 2846     		mov	r0, r5
 1784              	.LVL260:
 1785 0030 FFF7FEFF 		bl	u8g2_GetGlyphWidth
 1786              	.LVL261:
 1787 0034 C7B2     		uxtb	r7, r0
 1788              	.LVL262:
1071:Core/u8g2/u8g2_font.c ****     }
 1789              		.loc 1 1071 0
ARM GAS  C:\Users\ASUS\AppData\Local\Temp\ccnpu2Hi.s 			page 56


 1790 0036 3C44     		add	r4, r4, r7
 1791              	.LVL263:
 1792 0038 E4B2     		uxtb	r4, r4
 1793              	.LVL264:
 1794 003a EAE7     		b	.L102
 1795              	.LVL265:
 1796              	.L103:
1076:Core/u8g2/u8g2_font.c ****   {
 1797              		.loc 1 1076 0
 1798 003c 95F96030 		ldrsb	r3, [r5, #96]
 1799 0040 43B1     		cbz	r3, .L105
1078:Core/u8g2/u8g2_font.c ****     w += u8g2->font_decode.glyph_width;  /* the real pixel width of the glyph, sideeffect of GetGly
 1800              		.loc 1 1078 0
 1801 0042 E41B     		subs	r4, r4, r7
 1802              	.LVL266:
 1803 0044 E4B2     		uxtb	r4, r4
 1804              	.LVL267:
1079:Core/u8g2/u8g2_font.c ****     /* issue #46: we have to add the x offset also */
 1805              		.loc 1 1079 0
 1806 0046 DBB2     		uxtb	r3, r3
 1807 0048 1C44     		add	r4, r4, r3
 1808              	.LVL268:
 1809 004a E4B2     		uxtb	r4, r4
 1810              	.LVL269:
1081:Core/u8g2/u8g2_font.c ****   }
 1811              		.loc 1 1081 0
 1812 004c 95F88430 		ldrb	r3, [r5, #132]	@ zero_extendqisi2
 1813 0050 1C44     		add	r4, r4, r3
 1814              	.LVL270:
 1815 0052 E4B2     		uxtb	r4, r4
 1816              	.LVL271:
 1817              	.L105:
1086:Core/u8g2/u8g2_font.c **** 
 1818              		.loc 1 1086 0
 1819 0054 2046     		mov	r0, r4
 1820              	.LVL272:
 1821 0056 F8BD     		pop	{r3, r4, r5, r6, r7, pc}
 1822              		.cfi_endproc
 1823              	.LFE40:
 1825              		.section	.text.u8g2_SetFontMode,"ax",%progbits
 1826              		.align	1
 1827              		.global	u8g2_SetFontMode
 1828              		.syntax unified
 1829              		.thumb
 1830              		.thumb_func
 1831              		.fpu softvfp
 1833              	u8g2_SetFontMode:
 1834              	.LFB20:
 729:Core/u8g2/u8g2_font.c ****   u8g2->font_decode.is_transparent = is_transparent;		// new font procedures
 1835              		.loc 1 729 0
 1836              		.cfi_startproc
 1837              		@ args = 0, pretend = 0, frame = 0
 1838              		@ frame_needed = 0, uses_anonymous_args = 0
 1839              		@ link register save eliminated.
 1840              	.LVL273:
 730:Core/u8g2/u8g2_font.c **** }
 1841              		.loc 1 730 0
ARM GAS  C:\Users\ASUS\AppData\Local\Temp\ccnpu2Hi.s 			page 57


 1842 0000 80F86310 		strb	r1, [r0, #99]
 731:Core/u8g2/u8g2_font.c **** 
 1843              		.loc 1 731 0
 1844 0004 7047     		bx	lr
 1845              		.cfi_endproc
 1846              	.LFE20:
 1848              		.section	.text.u8g2_DrawGlyph,"ax",%progbits
 1849              		.align	1
 1850              		.global	u8g2_DrawGlyph
 1851              		.syntax unified
 1852              		.thumb
 1853              		.thumb_func
 1854              		.fpu softvfp
 1856              	u8g2_DrawGlyph:
 1857              	.LFB21:
 734:Core/u8g2/u8g2_font.c **** #ifdef U8G2_WITH_FONT_ROTATION
 1858              		.loc 1 734 0
 1859              		.cfi_startproc
 1860              		@ args = 0, pretend = 0, frame = 0
 1861              		@ frame_needed = 0, uses_anonymous_args = 0
 1862              	.LVL274:
 1863 0000 F8B5     		push	{r3, r4, r5, r6, r7, lr}
 1864              	.LCFI22:
 1865              		.cfi_def_cfa_offset 24
 1866              		.cfi_offset 3, -24
 1867              		.cfi_offset 4, -20
 1868              		.cfi_offset 5, -16
 1869              		.cfi_offset 6, -12
 1870              		.cfi_offset 7, -8
 1871              		.cfi_offset 14, -4
 1872 0002 0446     		mov	r4, r0
 1873 0004 0D46     		mov	r5, r1
 1874 0006 1646     		mov	r6, r2
 1875 0008 1F46     		mov	r7, r3
 736:Core/u8g2/u8g2_font.c ****   {
 1876              		.loc 1 736 0
 1877 000a 90F86630 		ldrb	r3, [r0, #102]	@ zero_extendqisi2
 1878              	.LVL275:
 1879 000e 032B     		cmp	r3, #3
 1880 0010 07D8     		bhi	.L109
 1881 0012 DFE803F0 		tbb	[pc, r3]
 1882              	.LVL276:
 1883              	.L111:
 1884 0016 02       		.byte	(.L110-.L111)/2
 1885 0017 0D       		.byte	(.L112-.L111)/2
 1886 0018 12       		.byte	(.L113-.L111)/2
 1887 0019 17       		.byte	(.L114-.L111)/2
 1888              		.p2align 1
 1889              	.L110:
 739:Core/u8g2/u8g2_font.c ****       break;
 1890              		.loc 1 739 0
 1891 001a 436D     		ldr	r3, [r0, #84]
 1892 001c 9847     		blx	r3
 1893              	.LVL277:
 1894 001e 0644     		add	r6, r6, r0
 1895 0020 F6B2     		uxtb	r6, r6
 1896              	.LVL278:
ARM GAS  C:\Users\ASUS\AppData\Local\Temp\ccnpu2Hi.s 			page 58


 1897              	.L109:
 754:Core/u8g2/u8g2_font.c **** }
 1898              		.loc 1 754 0
 1899 0022 3B46     		mov	r3, r7
 1900 0024 3246     		mov	r2, r6
 1901 0026 2946     		mov	r1, r5
 1902 0028 2046     		mov	r0, r4
 1903 002a FFF7FEFF 		bl	u8g2_font_draw_glyph
 1904              	.LVL279:
 755:Core/u8g2/u8g2_font.c **** 
 1905              		.loc 1 755 0
 1906 002e F8BD     		pop	{r3, r4, r5, r6, r7, pc}
 1907              	.LVL280:
 1908              	.L112:
 742:Core/u8g2/u8g2_font.c ****       break;
 1909              		.loc 1 742 0
 1910 0030 436D     		ldr	r3, [r0, #84]
 1911 0032 9847     		blx	r3
 1912              	.LVL281:
 1913 0034 2D1A     		subs	r5, r5, r0
 1914 0036 EDB2     		uxtb	r5, r5
 1915              	.LVL282:
 743:Core/u8g2/u8g2_font.c ****     case 2:
 1916              		.loc 1 743 0
 1917 0038 F3E7     		b	.L109
 1918              	.LVL283:
 1919              	.L113:
 745:Core/u8g2/u8g2_font.c ****       break;
 1920              		.loc 1 745 0
 1921 003a 436D     		ldr	r3, [r0, #84]
 1922 003c 9847     		blx	r3
 1923              	.LVL284:
 1924 003e 361A     		subs	r6, r6, r0
 1925 0040 F6B2     		uxtb	r6, r6
 1926              	.LVL285:
 746:Core/u8g2/u8g2_font.c ****     case 3:
 1927              		.loc 1 746 0
 1928 0042 EEE7     		b	.L109
 1929              	.LVL286:
 1930              	.L114:
 748:Core/u8g2/u8g2_font.c ****       break;
 1931              		.loc 1 748 0
 1932 0044 436D     		ldr	r3, [r0, #84]
 1933 0046 9847     		blx	r3
 1934              	.LVL287:
 1935 0048 0544     		add	r5, r5, r0
 1936 004a EDB2     		uxtb	r5, r5
 1937              	.LVL288:
 749:Core/u8g2/u8g2_font.c ****   }
 1938              		.loc 1 749 0
 1939 004c E9E7     		b	.L109
 1940              		.cfi_endproc
 1941              	.LFE21:
 1943              		.section	.text.u8g2_draw_string,"ax",%progbits
 1944              		.align	1
 1945              		.syntax unified
 1946              		.thumb
ARM GAS  C:\Users\ASUS\AppData\Local\Temp\ccnpu2Hi.s 			page 59


 1947              		.thumb_func
 1948              		.fpu softvfp
 1950              	u8g2_draw_string:
 1951              	.LFB22:
 759:Core/u8g2/u8g2_font.c ****   uint16_t e;
 1952              		.loc 1 759 0
 1953              		.cfi_startproc
 1954              		@ args = 0, pretend = 0, frame = 0
 1955              		@ frame_needed = 0, uses_anonymous_args = 0
 1956              	.LVL289:
 1957 0000 2DE9F041 		push	{r4, r5, r6, r7, r8, lr}
 1958              	.LCFI23:
 1959              		.cfi_def_cfa_offset 24
 1960              		.cfi_offset 4, -24
 1961              		.cfi_offset 5, -20
 1962              		.cfi_offset 6, -16
 1963              		.cfi_offset 7, -12
 1964              		.cfi_offset 8, -8
 1965              		.cfi_offset 14, -4
 1966 0004 0446     		mov	r4, r0
 1967 0006 0F46     		mov	r7, r1
 1968 0008 1646     		mov	r6, r2
 1969 000a 1D46     		mov	r5, r3
 762:Core/u8g2/u8g2_font.c ****   sum = 0;
 1970              		.loc 1 762 0
 1971 000c FFF7FEFF 		bl	u8x8_utf8_init
 1972              	.LVL290:
 763:Core/u8g2/u8g2_font.c ****   for(;;)
 1973              		.loc 1 763 0
 1974 0010 4FF00008 		mov	r8, #0
 1975 0014 04E0     		b	.L117
 1976              	.LVL291:
 1977              	.L121:
 778:Core/u8g2/u8g2_font.c **** 	  break;
 1978              		.loc 1 778 0
 1979 0016 0744     		add	r7, r7, r0
 1980              	.LVL292:
 1981 0018 FFB2     		uxtb	r7, r7
 1982              	.LVL293:
 1983              	.L120:
 794:Core/u8g2/u8g2_font.c ****     }
 1984              		.loc 1 794 0
 1985 001a 8044     		add	r8, r8, r0
 1986              	.LVL294:
 1987 001c 5FFA88F8 		uxtb	r8, r8
 1988              	.LVL295:
 1989              	.L117:
 766:Core/u8g2/u8g2_font.c ****     if ( e == 0x0ffff )
 1990              		.loc 1 766 0
 1991 0020 6368     		ldr	r3, [r4, #4]
 1992 0022 2978     		ldrb	r1, [r5]	@ zero_extendqisi2
 1993 0024 2046     		mov	r0, r4
 1994 0026 9847     		blx	r3
 1995              	.LVL296:
 767:Core/u8g2/u8g2_font.c ****       break;
 1996              		.loc 1 767 0
 1997 0028 4FF6FF73 		movw	r3, #65535
ARM GAS  C:\Users\ASUS\AppData\Local\Temp\ccnpu2Hi.s 			page 60


 1998 002c 9842     		cmp	r0, r3
 1999 002e 22D0     		beq	.L118
 769:Core/u8g2/u8g2_font.c ****     if ( e != 0x0fffe )
 2000              		.loc 1 769 0
 2001 0030 0135     		adds	r5, r5, #1
 2002              	.LVL297:
 770:Core/u8g2/u8g2_font.c ****     {
 2003              		.loc 1 770 0
 2004 0032 4FF6FE73 		movw	r3, #65534
 2005 0036 9842     		cmp	r0, r3
 2006 0038 F2D0     		beq	.L117
 772:Core/u8g2/u8g2_font.c ****     
 2007              		.loc 1 772 0
 2008 003a 0346     		mov	r3, r0
 2009 003c 3246     		mov	r2, r6
 2010 003e 3946     		mov	r1, r7
 2011 0040 2046     		mov	r0, r4
 2012              	.LVL298:
 2013 0042 FFF7FEFF 		bl	u8g2_DrawGlyph
 2014              	.LVL299:
 775:Core/u8g2/u8g2_font.c ****       {
 2015              		.loc 1 775 0
 2016 0046 94F86630 		ldrb	r3, [r4, #102]	@ zero_extendqisi2
 2017 004a 032B     		cmp	r3, #3
 2018 004c E5D8     		bhi	.L120
 2019 004e 01A2     		adr	r2, .L122
 2020 0050 52F823F0 		ldr	pc, [r2, r3, lsl #2]
 2021              		.p2align 2
 2022              	.L122:
 2023 0054 17000000 		.word	.L121+1
 2024 0058 65000000 		.word	.L123+1
 2025 005c 6B000000 		.word	.L124+1
 2026 0060 71000000 		.word	.L125+1
 2027              		.p2align 1
 2028              	.L123:
 781:Core/u8g2/u8g2_font.c **** 	  break;
 2029              		.loc 1 781 0
 2030 0064 0644     		add	r6, r6, r0
 2031              	.LVL300:
 2032 0066 F6B2     		uxtb	r6, r6
 2033              	.LVL301:
 782:Core/u8g2/u8g2_font.c **** 	case 2:
 2034              		.loc 1 782 0
 2035 0068 D7E7     		b	.L120
 2036              	.L124:
 784:Core/u8g2/u8g2_font.c **** 	  break;
 2037              		.loc 1 784 0
 2038 006a 3F1A     		subs	r7, r7, r0
 2039              	.LVL302:
 2040 006c FFB2     		uxtb	r7, r7
 2041              	.LVL303:
 785:Core/u8g2/u8g2_font.c **** 	case 3:
 2042              		.loc 1 785 0
 2043 006e D4E7     		b	.L120
 2044              	.L125:
 787:Core/u8g2/u8g2_font.c **** 	  break;
 2045              		.loc 1 787 0
ARM GAS  C:\Users\ASUS\AppData\Local\Temp\ccnpu2Hi.s 			page 61


 2046 0070 361A     		subs	r6, r6, r0
 2047              	.LVL304:
 2048 0072 F6B2     		uxtb	r6, r6
 2049              	.LVL305:
 788:Core/u8g2/u8g2_font.c ****       }
 2050              		.loc 1 788 0
 2051 0074 D1E7     		b	.L120
 2052              	.LVL306:
 2053              	.L118:
 798:Core/u8g2/u8g2_font.c **** 
 2054              		.loc 1 798 0
 2055 0076 4046     		mov	r0, r8
 2056              	.LVL307:
 2057 0078 BDE8F081 		pop	{r4, r5, r6, r7, r8, pc}
 2058              		.cfi_endproc
 2059              	.LFE22:
 2061              		.section	.text.u8g2_DrawStr,"ax",%progbits
 2062              		.align	1
 2063              		.global	u8g2_DrawStr
 2064              		.syntax unified
 2065              		.thumb
 2066              		.thumb_func
 2067              		.fpu softvfp
 2069              	u8g2_DrawStr:
 2070              	.LFB23:
 801:Core/u8g2/u8g2_font.c ****   u8g2->u8x8.next_cb = u8x8_ascii_next;
 2071              		.loc 1 801 0
 2072              		.cfi_startproc
 2073              		@ args = 0, pretend = 0, frame = 0
 2074              		@ frame_needed = 0, uses_anonymous_args = 0
 2075              	.LVL308:
 2076 0000 10B5     		push	{r4, lr}
 2077              	.LCFI24:
 2078              		.cfi_def_cfa_offset 8
 2079              		.cfi_offset 4, -8
 2080              		.cfi_offset 14, -4
 802:Core/u8g2/u8g2_font.c ****   return u8g2_draw_string(u8g2, x, y, str);
 2081              		.loc 1 802 0
 2082 0002 024C     		ldr	r4, .L129
 2083 0004 4460     		str	r4, [r0, #4]
 803:Core/u8g2/u8g2_font.c **** }
 2084              		.loc 1 803 0
 2085 0006 FFF7FEFF 		bl	u8g2_draw_string
 2086              	.LVL309:
 804:Core/u8g2/u8g2_font.c **** 
 2087              		.loc 1 804 0
 2088 000a 10BD     		pop	{r4, pc}
 2089              	.L130:
 2090              		.align	2
 2091              	.L129:
 2092 000c 00000000 		.word	u8x8_ascii_next
 2093              		.cfi_endproc
 2094              	.LFE23:
 2096              		.section	.text.u8g2_DrawUTF8,"ax",%progbits
 2097              		.align	1
 2098              		.global	u8g2_DrawUTF8
 2099              		.syntax unified
ARM GAS  C:\Users\ASUS\AppData\Local\Temp\ccnpu2Hi.s 			page 62


 2100              		.thumb
 2101              		.thumb_func
 2102              		.fpu softvfp
 2104              	u8g2_DrawUTF8:
 2105              	.LFB24:
 817:Core/u8g2/u8g2_font.c ****   u8g2->u8x8.next_cb = u8x8_utf8_next;
 2106              		.loc 1 817 0
 2107              		.cfi_startproc
 2108              		@ args = 0, pretend = 0, frame = 0
 2109              		@ frame_needed = 0, uses_anonymous_args = 0
 2110              	.LVL310:
 2111 0000 10B5     		push	{r4, lr}
 2112              	.LCFI25:
 2113              		.cfi_def_cfa_offset 8
 2114              		.cfi_offset 4, -8
 2115              		.cfi_offset 14, -4
 818:Core/u8g2/u8g2_font.c ****   return u8g2_draw_string(u8g2, x, y, str);
 2116              		.loc 1 818 0
 2117 0002 024C     		ldr	r4, .L133
 2118 0004 4460     		str	r4, [r0, #4]
 819:Core/u8g2/u8g2_font.c **** }
 2119              		.loc 1 819 0
 2120 0006 FFF7FEFF 		bl	u8g2_draw_string
 2121              	.LVL311:
 820:Core/u8g2/u8g2_font.c **** 
 2122              		.loc 1 820 0
 2123 000a 10BD     		pop	{r4, pc}
 2124              	.L134:
 2125              		.align	2
 2126              	.L133:
 2127 000c 00000000 		.word	u8x8_utf8_next
 2128              		.cfi_endproc
 2129              	.LFE24:
 2131              		.section	.text.u8g2_DrawExtendedUTF8,"ax",%progbits
 2132              		.align	1
 2133              		.global	u8g2_DrawExtendedUTF8
 2134              		.syntax unified
 2135              		.thumb
 2136              		.thumb_func
 2137              		.fpu softvfp
 2139              	u8g2_DrawExtendedUTF8:
 2140              	.LFB25:
 825:Core/u8g2/u8g2_font.c ****   u8g2->u8x8.next_cb = u8x8_utf8_next;
 2141              		.loc 1 825 0
 2142              		.cfi_startproc
 2143              		@ args = 8, pretend = 0, frame = 8
 2144              		@ frame_needed = 0, uses_anonymous_args = 0
 2145              	.LVL312:
 2146 0000 2DE9F04F 		push	{r4, r5, r6, r7, r8, r9, r10, fp, lr}
 2147              	.LCFI26:
 2148              		.cfi_def_cfa_offset 36
 2149              		.cfi_offset 4, -36
 2150              		.cfi_offset 5, -32
 2151              		.cfi_offset 6, -28
 2152              		.cfi_offset 7, -24
 2153              		.cfi_offset 8, -20
 2154              		.cfi_offset 9, -16
ARM GAS  C:\Users\ASUS\AppData\Local\Temp\ccnpu2Hi.s 			page 63


 2155              		.cfi_offset 10, -12
 2156              		.cfi_offset 11, -8
 2157              		.cfi_offset 14, -4
 2158 0004 83B0     		sub	sp, sp, #12
 2159              	.LCFI27:
 2160              		.cfi_def_cfa_offset 48
 2161 0006 8146     		mov	r9, r0
 2162 0008 0F46     		mov	r7, r1
 2163 000a 0192     		str	r2, [sp, #4]
 2164 000c 9B46     		mov	fp, r3
 2165 000e DDF834A0 		ldr	r10, [sp, #52]
 826:Core/u8g2/u8g2_font.c ****   uint16_t e_prev = 0x0ffff;
 2166              		.loc 1 826 0
 2167 0012 264B     		ldr	r3, .L143
 2168              	.LVL313:
 2169 0014 4360     		str	r3, [r0, #4]
 2170              	.LVL314:
 830:Core/u8g2/u8g2_font.c ****   sum = 0;
 2171              		.loc 1 830 0
 2172 0016 FFF7FEFF 		bl	u8x8_utf8_init
 2173              	.LVL315:
 831:Core/u8g2/u8g2_font.c ****   for(;;)
 2174              		.loc 1 831 0
 2175 001a 0025     		movs	r5, #0
 827:Core/u8g2/u8g2_font.c ****   uint16_t e;
 2176              		.loc 1 827 0
 2177 001c 4FF6FF78 		movw	r8, #65535
 2178 0020 0CE0     		b	.L136
 2179              	.LVL316:
 2180              	.L139:
 850:Core/u8g2/u8g2_font.c **** 	delta -= k;
 2181              		.loc 1 850 0
 2182 0022 2346     		mov	r3, r4
 2183 0024 4246     		mov	r2, r8
 2184 0026 0C99     		ldr	r1, [sp, #48]
 2185 0028 4846     		mov	r0, r9
 2186 002a FFF7FEFF 		bl	u8g2_GetKerning
 2187              	.LVL317:
 2188 002e 8046     		mov	r8, r0
 2189              	.LVL318:
 851:Core/u8g2/u8g2_font.c ****       }
 2190              		.loc 1 851 0
 2191 0030 361A     		subs	r6, r6, r0
 2192              	.LVL319:
 2193 0032 F6B2     		uxtb	r6, r6
 2194              	.LVL320:
 2195 0034 26E0     		b	.L140
 2196              	.LVL321:
 2197              	.L141:
 865:Core/u8g2/u8g2_font.c ****     }
 2198              		.loc 1 865 0
 2199 0036 2E44     		add	r6, r6, r5
 2200              	.LVL322:
 2201 0038 F5B2     		uxtb	r5, r6
 2202              	.LVL323:
 853:Core/u8g2/u8g2_font.c **** 
 2203              		.loc 1 853 0
ARM GAS  C:\Users\ASUS\AppData\Local\Temp\ccnpu2Hi.s 			page 64


 2204 003a A046     		mov	r8, r4
 2205              	.LVL324:
 2206              	.L136:
 834:Core/u8g2/u8g2_font.c ****     if ( e == 0x0ffff )
 2207              		.loc 1 834 0
 2208 003c D9F80430 		ldr	r3, [r9, #4]
 2209 0040 9AF80010 		ldrb	r1, [r10]	@ zero_extendqisi2
 2210 0044 4846     		mov	r0, r9
 2211 0046 9847     		blx	r3
 2212              	.LVL325:
 2213 0048 0446     		mov	r4, r0
 2214              	.LVL326:
 835:Core/u8g2/u8g2_font.c ****       break;
 2215              		.loc 1 835 0
 2216 004a 4FF6FF73 		movw	r3, #65535
 2217 004e 9842     		cmp	r0, r3
 2218 0050 27D0     		beq	.L137
 837:Core/u8g2/u8g2_font.c ****     if ( e != 0x0fffe )
 2219              		.loc 1 837 0
 2220 0052 0AF1010A 		add	r10, r10, #1
 2221              	.LVL327:
 838:Core/u8g2/u8g2_font.c ****     {
 2222              		.loc 1 838 0
 2223 0056 4FF6FE73 		movw	r3, #65534
 2224 005a 9842     		cmp	r0, r3
 2225 005c EED0     		beq	.L136
 840:Core/u8g2/u8g2_font.c **** 	    
 2226              		.loc 1 840 0
 2227 005e 0146     		mov	r1, r0
 2228 0060 4846     		mov	r0, r9
 2229              	.LVL328:
 2230 0062 FFF7FEFF 		bl	u8g2_GetGlyphWidth
 2231              	.LVL329:
 2232 0066 C6B2     		uxtb	r6, r0
 2233              	.LVL330:
 842:Core/u8g2/u8g2_font.c ****       {
 2234              		.loc 1 842 0
 2235 0068 BBF1000F 		cmp	fp, #0
 2236 006c D9D0     		beq	.L139
 844:Core/u8g2/u8g2_font.c **** 	delta -= k;
 2237              		.loc 1 844 0
 2238 006e 4346     		mov	r3, r8
 2239 0070 2246     		mov	r2, r4
 2240 0072 0C99     		ldr	r1, [sp, #48]
 2241 0074 4846     		mov	r0, r9
 2242 0076 FFF7FEFF 		bl	u8g2_GetKerning
 2243              	.LVL331:
 2244 007a 8046     		mov	r8, r0
 2245              	.LVL332:
 845:Core/u8g2/u8g2_font.c **** 	x -= delta;
 2246              		.loc 1 845 0
 2247 007c 361A     		subs	r6, r6, r0
 2248              	.LVL333:
 2249 007e F6B2     		uxtb	r6, r6
 2250              	.LVL334:
 846:Core/u8g2/u8g2_font.c ****       }
 2251              		.loc 1 846 0
ARM GAS  C:\Users\ASUS\AppData\Local\Temp\ccnpu2Hi.s 			page 65


 2252 0080 BF1B     		subs	r7, r7, r6
 2253              	.LVL335:
 2254 0082 FFB2     		uxtb	r7, r7
 2255              	.LVL336:
 2256              	.L140:
 855:Core/u8g2/u8g2_font.c ****       if ( to_left )
 2257              		.loc 1 855 0
 2258 0084 2346     		mov	r3, r4
 2259 0086 019A     		ldr	r2, [sp, #4]
 2260 0088 3946     		mov	r1, r7
 2261 008a 4846     		mov	r0, r9
 2262 008c FFF7FEFF 		bl	u8g2_DrawGlyph
 2263              	.LVL337:
 856:Core/u8g2/u8g2_font.c ****       {
 2264              		.loc 1 856 0
 2265 0090 BBF1000F 		cmp	fp, #0
 2266 0094 CFD1     		bne	.L141
 861:Core/u8g2/u8g2_font.c **** 	x -= k;
 2267              		.loc 1 861 0
 2268 0096 3744     		add	r7, r7, r6
 2269              	.LVL338:
 2270 0098 FFB2     		uxtb	r7, r7
 2271              	.LVL339:
 862:Core/u8g2/u8g2_font.c ****       }
 2272              		.loc 1 862 0
 2273 009a A7EB0807 		sub	r7, r7, r8
 2274              	.LVL340:
 2275 009e FFB2     		uxtb	r7, r7
 2276              	.LVL341:
 2277 00a0 C9E7     		b	.L141
 2278              	.LVL342:
 2279              	.L137:
 869:Core/u8g2/u8g2_font.c **** 
 2280              		.loc 1 869 0
 2281 00a2 2846     		mov	r0, r5
 2282              	.LVL343:
 2283 00a4 03B0     		add	sp, sp, #12
 2284              	.LCFI28:
 2285              		.cfi_def_cfa_offset 36
 2286              		@ sp needed
 2287 00a6 BDE8F08F 		pop	{r4, r5, r6, r7, r8, r9, r10, fp, pc}
 2288              	.LVL344:
 2289              	.L144:
 2290 00aa 00BF     		.align	2
 2291              	.L143:
 2292 00ac 00000000 		.word	u8x8_utf8_next
 2293              		.cfi_endproc
 2294              	.LFE25:
 2296              		.section	.text.u8g2_DrawExtUTF8,"ax",%progbits
 2297              		.align	1
 2298              		.global	u8g2_DrawExtUTF8
 2299              		.syntax unified
 2300              		.thumb
 2301              		.thumb_func
 2302              		.fpu softvfp
 2304              	u8g2_DrawExtUTF8:
 2305              	.LFB26:
ARM GAS  C:\Users\ASUS\AppData\Local\Temp\ccnpu2Hi.s 			page 66


 872:Core/u8g2/u8g2_font.c ****   u8g2->u8x8.next_cb = u8x8_utf8_next;
 2306              		.loc 1 872 0
 2307              		.cfi_startproc
 2308              		@ args = 8, pretend = 0, frame = 8
 2309              		@ frame_needed = 0, uses_anonymous_args = 0
 2310              	.LVL345:
 2311 0000 2DE9F04F 		push	{r4, r5, r6, r7, r8, r9, r10, fp, lr}
 2312              	.LCFI29:
 2313              		.cfi_def_cfa_offset 36
 2314              		.cfi_offset 4, -36
 2315              		.cfi_offset 5, -32
 2316              		.cfi_offset 6, -28
 2317              		.cfi_offset 7, -24
 2318              		.cfi_offset 8, -20
 2319              		.cfi_offset 9, -16
 2320              		.cfi_offset 10, -12
 2321              		.cfi_offset 11, -8
 2322              		.cfi_offset 14, -4
 2323 0004 83B0     		sub	sp, sp, #12
 2324              	.LCFI30:
 2325              		.cfi_def_cfa_offset 48
 2326 0006 0646     		mov	r6, r0
 2327 0008 8846     		mov	r8, r1
 2328 000a 0192     		str	r2, [sp, #4]
 2329 000c 9A46     		mov	r10, r3
 2330 000e 0D9F     		ldr	r7, [sp, #52]
 873:Core/u8g2/u8g2_font.c ****   uint16_t e_prev = 0x0ffff;
 2331              		.loc 1 873 0
 2332 0010 244B     		ldr	r3, .L153
 2333              	.LVL346:
 2334 0012 4360     		str	r3, [r0, #4]
 2335              	.LVL347:
 877:Core/u8g2/u8g2_font.c ****   sum = 0;
 2336              		.loc 1 877 0
 2337 0014 FFF7FEFF 		bl	u8x8_utf8_init
 2338              	.LVL348:
 878:Core/u8g2/u8g2_font.c ****   for(;;)
 2339              		.loc 1 878 0
 2340 0018 4FF00009 		mov	r9, #0
 874:Core/u8g2/u8g2_font.c ****   uint16_t e;
 2341              		.loc 1 874 0
 2342 001c 4FF6FF7B 		movw	fp, #65535
 2343 0020 12E0     		b	.L146
 2344              	.LVL349:
 2345              	.L149:
 897:Core/u8g2/u8g2_font.c **** 	delta -= k;
 2346              		.loc 1 897 0
 2347 0022 2346     		mov	r3, r4
 2348 0024 5A46     		mov	r2, fp
 2349 0026 0C99     		ldr	r1, [sp, #48]
 2350 0028 3046     		mov	r0, r6
 2351 002a FFF7FEFF 		bl	u8g2_GetKerningByTable
 2352              	.LVL350:
 898:Core/u8g2/u8g2_font.c ****       }
 2353              		.loc 1 898 0
 2354 002e 2D1A     		subs	r5, r5, r0
 2355              	.LVL351:
ARM GAS  C:\Users\ASUS\AppData\Local\Temp\ccnpu2Hi.s 			page 67


 2356 0030 EDB2     		uxtb	r5, r5
 2357              	.LVL352:
 2358 0032 2BE0     		b	.L150
 2359              	.LVL353:
 2360              	.L151:
 909:Core/u8g2/u8g2_font.c ****       if ( to_left )
 2361              		.loc 1 909 0
 2362 0034 2346     		mov	r3, r4
 2363 0036 019A     		ldr	r2, [sp, #4]
 2364 0038 4146     		mov	r1, r8
 2365 003a 3046     		mov	r0, r6
 2366              	.LVL354:
 2367 003c FFF7FEFF 		bl	u8g2_DrawGlyph
 2368              	.LVL355:
 919:Core/u8g2/u8g2_font.c ****     }
 2369              		.loc 1 919 0
 2370 0040 A944     		add	r9, r9, r5
 2371              	.LVL356:
 2372 0042 5FFA89F9 		uxtb	r9, r9
 2373              	.LVL357:
 900:Core/u8g2/u8g2_font.c **** 
 2374              		.loc 1 900 0
 2375 0046 A346     		mov	fp, r4
 2376              	.LVL358:
 2377              	.L146:
 881:Core/u8g2/u8g2_font.c ****     if ( e == 0x0ffff )
 2378              		.loc 1 881 0
 2379 0048 7368     		ldr	r3, [r6, #4]
 2380 004a 3978     		ldrb	r1, [r7]	@ zero_extendqisi2
 2381 004c 3046     		mov	r0, r6
 2382 004e 9847     		blx	r3
 2383              	.LVL359:
 2384 0050 0446     		mov	r4, r0
 2385              	.LVL360:
 882:Core/u8g2/u8g2_font.c ****       break;
 2386              		.loc 1 882 0
 2387 0052 4FF6FF73 		movw	r3, #65535
 2388 0056 9842     		cmp	r0, r3
 2389 0058 1FD0     		beq	.L147
 884:Core/u8g2/u8g2_font.c ****     if ( e != 0x0fffe )
 2390              		.loc 1 884 0
 2391 005a 0137     		adds	r7, r7, #1
 2392              	.LVL361:
 885:Core/u8g2/u8g2_font.c ****     {
 2393              		.loc 1 885 0
 2394 005c 4FF6FE73 		movw	r3, #65534
 2395 0060 9842     		cmp	r0, r3
 2396 0062 F1D0     		beq	.L146
 887:Core/u8g2/u8g2_font.c **** 	    
 2397              		.loc 1 887 0
 2398 0064 0146     		mov	r1, r0
 2399 0066 3046     		mov	r0, r6
 2400              	.LVL362:
 2401 0068 FFF7FEFF 		bl	u8g2_GetGlyphWidth
 2402              	.LVL363:
 2403 006c C5B2     		uxtb	r5, r0
 2404              	.LVL364:
ARM GAS  C:\Users\ASUS\AppData\Local\Temp\ccnpu2Hi.s 			page 68


 889:Core/u8g2/u8g2_font.c ****       {
 2405              		.loc 1 889 0
 2406 006e BAF1000F 		cmp	r10, #0
 2407 0072 D6D0     		beq	.L149
 891:Core/u8g2/u8g2_font.c **** 	delta -= k;
 2408              		.loc 1 891 0
 2409 0074 5B46     		mov	r3, fp
 2410 0076 2246     		mov	r2, r4
 2411 0078 0C99     		ldr	r1, [sp, #48]
 2412 007a 3046     		mov	r0, r6
 2413 007c FFF7FEFF 		bl	u8g2_GetKerningByTable
 2414              	.LVL365:
 892:Core/u8g2/u8g2_font.c **** 	x -= delta;
 2415              		.loc 1 892 0
 2416 0080 2D1A     		subs	r5, r5, r0
 2417              	.LVL366:
 2418 0082 EDB2     		uxtb	r5, r5
 2419              	.LVL367:
 893:Core/u8g2/u8g2_font.c ****       }
 2420              		.loc 1 893 0
 2421 0084 A8EB0508 		sub	r8, r8, r5
 2422              	.LVL368:
 2423 0088 5FFA88F8 		uxtb	r8, r8
 2424              	.LVL369:
 2425              	.L150:
 902:Core/u8g2/u8g2_font.c ****       {
 2426              		.loc 1 902 0
 2427 008c BAF1000F 		cmp	r10, #0
 2428 0090 D0D1     		bne	.L151
 907:Core/u8g2/u8g2_font.c ****       }
 2429              		.loc 1 907 0
 2430 0092 A844     		add	r8, r8, r5
 2431              	.LVL370:
 2432 0094 5FFA88F8 		uxtb	r8, r8
 2433              	.LVL371:
 2434 0098 CCE7     		b	.L151
 2435              	.LVL372:
 2436              	.L147:
 923:Core/u8g2/u8g2_font.c **** 
 2437              		.loc 1 923 0
 2438 009a 4846     		mov	r0, r9
 2439              	.LVL373:
 2440 009c 03B0     		add	sp, sp, #12
 2441              	.LCFI31:
 2442              		.cfi_def_cfa_offset 36
 2443              		@ sp needed
 2444 009e BDE8F08F 		pop	{r4, r5, r6, r7, r8, r9, r10, fp, pc}
 2445              	.LVL374:
 2446              	.L154:
 2447 00a2 00BF     		.align	2
 2448              	.L153:
 2449 00a4 00000000 		.word	u8x8_utf8_next
 2450              		.cfi_endproc
 2451              	.LFE26:
 2453              		.section	.text.u8g2_UpdateRefHeight,"ax",%progbits
 2454              		.align	1
 2455              		.global	u8g2_UpdateRefHeight
ARM GAS  C:\Users\ASUS\AppData\Local\Temp\ccnpu2Hi.s 			page 69


 2456              		.syntax unified
 2457              		.thumb
 2458              		.thumb_func
 2459              		.fpu softvfp
 2461              	u8g2_UpdateRefHeight:
 2462              	.LFB27:
 932:Core/u8g2/u8g2_font.c ****   if ( u8g2->font == NULL )
 2463              		.loc 1 932 0
 2464              		.cfi_startproc
 2465              		@ args = 0, pretend = 0, frame = 0
 2466              		@ frame_needed = 0, uses_anonymous_args = 0
 2467              		@ link register save eliminated.
 2468              	.LVL375:
 933:Core/u8g2/u8g2_font.c ****     return;
 2469              		.loc 1 933 0
 2470 0000 036D     		ldr	r3, [r0, #80]
 2471 0002 63B3     		cbz	r3, .L161
 935:Core/u8g2/u8g2_font.c ****   u8g2->font_ref_descent = u8g2->font_info.descent_g;
 2472              		.loc 1 935 0
 2473 0004 90F97520 		ldrsb	r2, [r0, #117]
 2474 0008 80F88220 		strb	r2, [r0, #130]
 936:Core/u8g2/u8g2_font.c ****   if ( u8g2->font_height_mode == U8G2_FONT_HEIGHT_MODE_TEXT )
 2475              		.loc 1 936 0
 2476 000c 90F97630 		ldrsb	r3, [r0, #118]
 2477 0010 80F88330 		strb	r3, [r0, #131]
 937:Core/u8g2/u8g2_font.c ****   {
 2478              		.loc 1 937 0
 2479 0014 90F88110 		ldrb	r1, [r0, #129]	@ zero_extendqisi2
 2480 0018 09B3     		cbz	r1, .L161
 940:Core/u8g2/u8g2_font.c ****   {
 2481              		.loc 1 940 0
 2482 001a 0129     		cmp	r1, #1
 2483 001c 12D0     		beq	.L163
 932:Core/u8g2/u8g2_font.c ****   if ( u8g2->font == NULL )
 2484              		.loc 1 932 0
 2485 001e 30B4     		push	{r4, r5}
 2486              	.LCFI32:
 2487              		.cfi_def_cfa_offset 8
 2488              		.cfi_offset 4, -8
 2489              		.cfi_offset 5, -4
 949:Core/u8g2/u8g2_font.c ****       u8g2->font_ref_ascent = u8g2->font_info.max_char_height+u8g2->font_info.y_offset;
 2490              		.loc 1 949 0
 2491 0020 90F97210 		ldrsb	r1, [r0, #114]
 2492 0024 90F97440 		ldrsb	r4, [r0, #116]
 2493 0028 0D19     		adds	r5, r1, r4
 2494 002a AA42     		cmp	r2, r5
 2495 002c 04DA     		bge	.L159
 950:Core/u8g2/u8g2_font.c ****     if ( u8g2->font_ref_descent > u8g2->font_info.y_offset )
 2496              		.loc 1 950 0
 2497 002e C9B2     		uxtb	r1, r1
 2498 0030 E2B2     		uxtb	r2, r4
 2499 0032 1144     		add	r1, r1, r2
 2500 0034 80F88210 		strb	r1, [r0, #130]
 2501              	.L159:
 951:Core/u8g2/u8g2_font.c ****       u8g2->font_ref_descent = u8g2->font_info.y_offset;
 2502              		.loc 1 951 0
 2503 0038 A342     		cmp	r3, r4
ARM GAS  C:\Users\ASUS\AppData\Local\Temp\ccnpu2Hi.s 			page 70


 2504 003a 01DD     		ble	.L155
 952:Core/u8g2/u8g2_font.c ****   }  
 2505              		.loc 1 952 0
 2506 003c 80F88340 		strb	r4, [r0, #131]
 2507              	.L155:
 954:Core/u8g2/u8g2_font.c **** 
 2508              		.loc 1 954 0
 2509 0040 30BC     		pop	{r4, r5}
 2510              	.LCFI33:
 2511              		.cfi_restore 5
 2512              		.cfi_restore 4
 2513              		.cfi_def_cfa_offset 0
 2514 0042 7047     		bx	lr
 2515              	.L163:
 942:Core/u8g2/u8g2_font.c ****       u8g2->font_ref_ascent = u8g2->font_info.ascent_para;
 2516              		.loc 1 942 0
 2517 0044 90F97710 		ldrsb	r1, [r0, #119]
 2518 0048 8A42     		cmp	r2, r1
 2519 004a 01DA     		bge	.L158
 943:Core/u8g2/u8g2_font.c ****     if ( u8g2->font_ref_descent > u8g2->font_info.descent_para )
 2520              		.loc 1 943 0
 2521 004c 80F88210 		strb	r1, [r0, #130]
 2522              	.L158:
 944:Core/u8g2/u8g2_font.c ****       u8g2->font_ref_descent = u8g2->font_info.descent_para;
 2523              		.loc 1 944 0
 2524 0050 90F97820 		ldrsb	r2, [r0, #120]
 2525 0054 9342     		cmp	r3, r2
 2526 0056 02DD     		ble	.L161
 945:Core/u8g2/u8g2_font.c ****   }
 2527              		.loc 1 945 0
 2528 0058 80F88320 		strb	r2, [r0, #131]
 2529 005c 7047     		bx	lr
 2530              	.L161:
 2531 005e 7047     		bx	lr
 2532              		.cfi_endproc
 2533              	.LFE27:
 2535              		.section	.text.u8g2_SetFontRefHeightText,"ax",%progbits
 2536              		.align	1
 2537              		.global	u8g2_SetFontRefHeightText
 2538              		.syntax unified
 2539              		.thumb
 2540              		.thumb_func
 2541              		.fpu softvfp
 2543              	u8g2_SetFontRefHeightText:
 2544              	.LFB28:
 957:Core/u8g2/u8g2_font.c ****   u8g2->font_height_mode = U8G2_FONT_HEIGHT_MODE_TEXT;
 2545              		.loc 1 957 0
 2546              		.cfi_startproc
 2547              		@ args = 0, pretend = 0, frame = 0
 2548              		@ frame_needed = 0, uses_anonymous_args = 0
 2549              	.LVL376:
 2550 0000 08B5     		push	{r3, lr}
 2551              	.LCFI34:
 2552              		.cfi_def_cfa_offset 8
 2553              		.cfi_offset 3, -8
 2554              		.cfi_offset 14, -4
 958:Core/u8g2/u8g2_font.c ****   u8g2_UpdateRefHeight(u8g2);
ARM GAS  C:\Users\ASUS\AppData\Local\Temp\ccnpu2Hi.s 			page 71


 2555              		.loc 1 958 0
 2556 0002 0022     		movs	r2, #0
 2557 0004 80F88120 		strb	r2, [r0, #129]
 959:Core/u8g2/u8g2_font.c **** }
 2558              		.loc 1 959 0
 2559 0008 FFF7FEFF 		bl	u8g2_UpdateRefHeight
 2560              	.LVL377:
 960:Core/u8g2/u8g2_font.c **** 
 2561              		.loc 1 960 0
 2562 000c 08BD     		pop	{r3, pc}
 2563              		.cfi_endproc
 2564              	.LFE28:
 2566              		.section	.text.u8g2_SetFontRefHeightExtendedText,"ax",%progbits
 2567              		.align	1
 2568              		.global	u8g2_SetFontRefHeightExtendedText
 2569              		.syntax unified
 2570              		.thumb
 2571              		.thumb_func
 2572              		.fpu softvfp
 2574              	u8g2_SetFontRefHeightExtendedText:
 2575              	.LFB29:
 963:Core/u8g2/u8g2_font.c ****   u8g2->font_height_mode = U8G2_FONT_HEIGHT_MODE_XTEXT;
 2576              		.loc 1 963 0
 2577              		.cfi_startproc
 2578              		@ args = 0, pretend = 0, frame = 0
 2579              		@ frame_needed = 0, uses_anonymous_args = 0
 2580              	.LVL378:
 2581 0000 08B5     		push	{r3, lr}
 2582              	.LCFI35:
 2583              		.cfi_def_cfa_offset 8
 2584              		.cfi_offset 3, -8
 2585              		.cfi_offset 14, -4
 964:Core/u8g2/u8g2_font.c ****   u8g2_UpdateRefHeight(u8g2);
 2586              		.loc 1 964 0
 2587 0002 0123     		movs	r3, #1
 2588 0004 80F88130 		strb	r3, [r0, #129]
 965:Core/u8g2/u8g2_font.c **** }
 2589              		.loc 1 965 0
 2590 0008 FFF7FEFF 		bl	u8g2_UpdateRefHeight
 2591              	.LVL379:
 966:Core/u8g2/u8g2_font.c **** 
 2592              		.loc 1 966 0
 2593 000c 08BD     		pop	{r3, pc}
 2594              		.cfi_endproc
 2595              	.LFE29:
 2597              		.section	.text.u8g2_SetFontRefHeightAll,"ax",%progbits
 2598              		.align	1
 2599              		.global	u8g2_SetFontRefHeightAll
 2600              		.syntax unified
 2601              		.thumb
 2602              		.thumb_func
 2603              		.fpu softvfp
 2605              	u8g2_SetFontRefHeightAll:
 2606              	.LFB30:
 969:Core/u8g2/u8g2_font.c ****   u8g2->font_height_mode = U8G2_FONT_HEIGHT_MODE_ALL;
 2607              		.loc 1 969 0
 2608              		.cfi_startproc
ARM GAS  C:\Users\ASUS\AppData\Local\Temp\ccnpu2Hi.s 			page 72


 2609              		@ args = 0, pretend = 0, frame = 0
 2610              		@ frame_needed = 0, uses_anonymous_args = 0
 2611              	.LVL380:
 2612 0000 08B5     		push	{r3, lr}
 2613              	.LCFI36:
 2614              		.cfi_def_cfa_offset 8
 2615              		.cfi_offset 3, -8
 2616              		.cfi_offset 14, -4
 970:Core/u8g2/u8g2_font.c ****   u8g2_UpdateRefHeight(u8g2);
 2617              		.loc 1 970 0
 2618 0002 0223     		movs	r3, #2
 2619 0004 80F88130 		strb	r3, [r0, #129]
 971:Core/u8g2/u8g2_font.c **** }
 2620              		.loc 1 971 0
 2621 0008 FFF7FEFF 		bl	u8g2_UpdateRefHeight
 2622              	.LVL381:
 972:Core/u8g2/u8g2_font.c **** 
 2623              		.loc 1 972 0
 2624 000c 08BD     		pop	{r3, pc}
 2625              		.cfi_endproc
 2626              	.LFE30:
 2628              		.section	.text.u8g2_SetFontPosBaseline,"ax",%progbits
 2629              		.align	1
 2630              		.global	u8g2_SetFontPosBaseline
 2631              		.syntax unified
 2632              		.thumb
 2633              		.thumb_func
 2634              		.fpu softvfp
 2636              	u8g2_SetFontPosBaseline:
 2637              	.LFB32:
 983:Core/u8g2/u8g2_font.c ****   u8g2->font_calc_vref = u8g2_font_calc_vref_font;
 2638              		.loc 1 983 0
 2639              		.cfi_startproc
 2640              		@ args = 0, pretend = 0, frame = 0
 2641              		@ frame_needed = 0, uses_anonymous_args = 0
 2642              		@ link register save eliminated.
 2643              	.LVL382:
 984:Core/u8g2/u8g2_font.c **** }
 2644              		.loc 1 984 0
 2645 0000 014B     		ldr	r3, .L171
 2646 0002 4365     		str	r3, [r0, #84]
 985:Core/u8g2/u8g2_font.c **** 
 2647              		.loc 1 985 0
 2648 0004 7047     		bx	lr
 2649              	.L172:
 2650 0006 00BF     		.align	2
 2651              	.L171:
 2652 0008 00000000 		.word	u8g2_font_calc_vref_font
 2653              		.cfi_endproc
 2654              	.LFE32:
 2656              		.section	.text.u8g2_SetFontPosBottom,"ax",%progbits
 2657              		.align	1
 2658              		.global	u8g2_SetFontPosBottom
 2659              		.syntax unified
 2660              		.thumb
 2661              		.thumb_func
 2662              		.fpu softvfp
ARM GAS  C:\Users\ASUS\AppData\Local\Temp\ccnpu2Hi.s 			page 73


 2664              	u8g2_SetFontPosBottom:
 2665              	.LFB34:
 994:Core/u8g2/u8g2_font.c ****   u8g2->font_calc_vref = u8g2_font_calc_vref_bottom;
 2666              		.loc 1 994 0
 2667              		.cfi_startproc
 2668              		@ args = 0, pretend = 0, frame = 0
 2669              		@ frame_needed = 0, uses_anonymous_args = 0
 2670              		@ link register save eliminated.
 2671              	.LVL383:
 995:Core/u8g2/u8g2_font.c **** }
 2672              		.loc 1 995 0
 2673 0000 014B     		ldr	r3, .L174
 2674 0002 4365     		str	r3, [r0, #84]
 996:Core/u8g2/u8g2_font.c **** 
 2675              		.loc 1 996 0
 2676 0004 7047     		bx	lr
 2677              	.L175:
 2678 0006 00BF     		.align	2
 2679              	.L174:
 2680 0008 00000000 		.word	u8g2_font_calc_vref_bottom
 2681              		.cfi_endproc
 2682              	.LFE34:
 2684              		.section	.text.u8g2_SetFontPosTop,"ax",%progbits
 2685              		.align	1
 2686              		.global	u8g2_SetFontPosTop
 2687              		.syntax unified
 2688              		.thumb
 2689              		.thumb_func
 2690              		.fpu softvfp
 2692              	u8g2_SetFontPosTop:
 2693              	.LFB36:
1008:Core/u8g2/u8g2_font.c ****   u8g2->font_calc_vref = u8g2_font_calc_vref_top;
 2694              		.loc 1 1008 0
 2695              		.cfi_startproc
 2696              		@ args = 0, pretend = 0, frame = 0
 2697              		@ frame_needed = 0, uses_anonymous_args = 0
 2698              		@ link register save eliminated.
 2699              	.LVL384:
1009:Core/u8g2/u8g2_font.c **** }
 2700              		.loc 1 1009 0
 2701 0000 014B     		ldr	r3, .L177
 2702 0002 4365     		str	r3, [r0, #84]
1010:Core/u8g2/u8g2_font.c **** 
 2703              		.loc 1 1010 0
 2704 0004 7047     		bx	lr
 2705              	.L178:
 2706 0006 00BF     		.align	2
 2707              	.L177:
 2708 0008 00000000 		.word	u8g2_font_calc_vref_top
 2709              		.cfi_endproc
 2710              	.LFE36:
 2712              		.section	.text.u8g2_SetFontPosCenter,"ax",%progbits
 2713              		.align	1
 2714              		.global	u8g2_SetFontPosCenter
 2715              		.syntax unified
 2716              		.thumb
 2717              		.thumb_func
ARM GAS  C:\Users\ASUS\AppData\Local\Temp\ccnpu2Hi.s 			page 74


 2718              		.fpu softvfp
 2720              	u8g2_SetFontPosCenter:
 2721              	.LFB38:
1023:Core/u8g2/u8g2_font.c ****   u8g2->font_calc_vref = u8g2_font_calc_vref_center;
 2722              		.loc 1 1023 0
 2723              		.cfi_startproc
 2724              		@ args = 0, pretend = 0, frame = 0
 2725              		@ frame_needed = 0, uses_anonymous_args = 0
 2726              		@ link register save eliminated.
 2727              	.LVL385:
1024:Core/u8g2/u8g2_font.c **** }
 2728              		.loc 1 1024 0
 2729 0000 014B     		ldr	r3, .L180
 2730 0002 4365     		str	r3, [r0, #84]
1025:Core/u8g2/u8g2_font.c **** 
 2731              		.loc 1 1025 0
 2732 0004 7047     		bx	lr
 2733              	.L181:
 2734 0006 00BF     		.align	2
 2735              	.L180:
 2736 0008 00000000 		.word	u8g2_font_calc_vref_center
 2737              		.cfi_endproc
 2738              	.LFE38:
 2740              		.section	.text.u8g2_SetFont,"ax",%progbits
 2741              		.align	1
 2742              		.global	u8g2_SetFont
 2743              		.syntax unified
 2744              		.thumb
 2745              		.thumb_func
 2746              		.fpu softvfp
 2748              	u8g2_SetFont:
 2749              	.LFB39:
1030:Core/u8g2/u8g2_font.c ****   if ( u8g2->font != font )
 2750              		.loc 1 1030 0
 2751              		.cfi_startproc
 2752              		@ args = 0, pretend = 0, frame = 0
 2753              		@ frame_needed = 0, uses_anonymous_args = 0
 2754              	.LVL386:
1031:Core/u8g2/u8g2_font.c ****   {
 2755              		.loc 1 1031 0
 2756 0000 036D     		ldr	r3, [r0, #80]
 2757 0002 8B42     		cmp	r3, r1
 2758 0004 09D0     		beq	.L185
1030:Core/u8g2/u8g2_font.c ****   if ( u8g2->font != font )
 2759              		.loc 1 1030 0
 2760 0006 10B5     		push	{r4, lr}
 2761              	.LCFI37:
 2762              		.cfi_def_cfa_offset 8
 2763              		.cfi_offset 4, -8
 2764              		.cfi_offset 14, -4
 2765 0008 0446     		mov	r4, r0
1037:Core/u8g2/u8g2_font.c ****     u8g2_read_font_info(&(u8g2->font_info), font);
 2766              		.loc 1 1037 0
 2767 000a 0165     		str	r1, [r0, #80]
1038:Core/u8g2/u8g2_font.c ****     u8g2_UpdateRefHeight(u8g2);
 2768              		.loc 1 1038 0
 2769 000c 6830     		adds	r0, r0, #104
ARM GAS  C:\Users\ASUS\AppData\Local\Temp\ccnpu2Hi.s 			page 75


 2770              	.LVL387:
 2771 000e FFF7FEFF 		bl	u8g2_read_font_info
 2772              	.LVL388:
1039:Core/u8g2/u8g2_font.c ****     /* u8g2_SetFontPosBaseline(u8g2); */ /* removed with issue 195 */
 2773              		.loc 1 1039 0
 2774 0012 2046     		mov	r0, r4
 2775 0014 FFF7FEFF 		bl	u8g2_UpdateRefHeight
 2776              	.LVL389:
1042:Core/u8g2/u8g2_font.c **** 
 2777              		.loc 1 1042 0
 2778 0018 10BD     		pop	{r4, pc}
 2779              	.LVL390:
 2780              	.L185:
 2781              	.LCFI38:
 2782              		.cfi_def_cfa_offset 0
 2783              		.cfi_restore 4
 2784              		.cfi_restore 14
 2785 001a 7047     		bx	lr
 2786              		.cfi_endproc
 2787              	.LFE39:
 2789              		.section	.text.u8g2_GetStrX,"ax",%progbits
 2790              		.align	1
 2791              		.global	u8g2_GetStrX
 2792              		.syntax unified
 2793              		.thumb
 2794              		.thumb_func
 2795              		.fpu softvfp
 2797              	u8g2_GetStrX:
 2798              	.LFB42:
1103:Core/u8g2/u8g2_font.c ****   uint8_t w;
 2799              		.loc 1 1103 0
 2800              		.cfi_startproc
 2801              		@ args = 0, pretend = 0, frame = 8
 2802              		@ frame_needed = 0, uses_anonymous_args = 0
 2803              	.LVL391:
 2804 0000 00B5     		push	{lr}
 2805              	.LCFI39:
 2806              		.cfi_def_cfa_offset 4
 2807              		.cfi_offset 14, -4
 2808 0002 85B0     		sub	sp, sp, #20
 2809              	.LCFI40:
 2810              		.cfi_def_cfa_offset 24
1106:Core/u8g2/u8g2_font.c ****   return ox;
 2811              		.loc 1 1106 0
 2812 0004 0978     		ldrb	r1, [r1]	@ zero_extendqisi2
 2813              	.LVL392:
 2814 0006 0DF10D03 		add	r3, sp, #13
 2815 000a 0093     		str	r3, [sp]
 2816 000c 0DF10E03 		add	r3, sp, #14
 2817 0010 0DF10F02 		add	r2, sp, #15
 2818 0014 FFF7FEFF 		bl	u8g2_GetGlyphHorizontalProperties
 2819              	.LVL393:
1108:Core/u8g2/u8g2_font.c **** 
 2820              		.loc 1 1108 0
 2821 0018 9DF90E00 		ldrsb	r0, [sp, #14]
 2822 001c 05B0     		add	sp, sp, #20
 2823              	.LCFI41:
ARM GAS  C:\Users\ASUS\AppData\Local\Temp\ccnpu2Hi.s 			page 76


 2824              		.cfi_def_cfa_offset 4
 2825              		@ sp needed
 2826 001e 5DF804FB 		ldr	pc, [sp], #4
 2827              		.cfi_endproc
 2828              	.LFE42:
 2830              		.section	.text.u8g2_GetStrWidth,"ax",%progbits
 2831              		.align	1
 2832              		.global	u8g2_GetStrWidth
 2833              		.syntax unified
 2834              		.thumb
 2835              		.thumb_func
 2836              		.fpu softvfp
 2838              	u8g2_GetStrWidth:
 2839              	.LFB44:
1180:Core/u8g2/u8g2_font.c **** 
1181:Core/u8g2/u8g2_font.c **** 
1182:Core/u8g2/u8g2_font.c **** 
1183:Core/u8g2/u8g2_font.c **** 
1184:Core/u8g2/u8g2_font.c **** 
1185:Core/u8g2/u8g2_font.c **** u8g2_uint_t u8g2_GetStrWidth(u8g2_t *u8g2, const char *s)
1186:Core/u8g2/u8g2_font.c **** {
 2840              		.loc 1 1186 0
 2841              		.cfi_startproc
 2842              		@ args = 0, pretend = 0, frame = 0
 2843              		@ frame_needed = 0, uses_anonymous_args = 0
 2844              	.LVL394:
 2845 0000 08B5     		push	{r3, lr}
 2846              	.LCFI42:
 2847              		.cfi_def_cfa_offset 8
 2848              		.cfi_offset 3, -8
 2849              		.cfi_offset 14, -4
1187:Core/u8g2/u8g2_font.c ****   u8g2->u8x8.next_cb = u8x8_ascii_next;
 2850              		.loc 1 1187 0
 2851 0002 024B     		ldr	r3, .L192
 2852 0004 4360     		str	r3, [r0, #4]
1188:Core/u8g2/u8g2_font.c ****   return u8g2_string_width(u8g2, s);
 2853              		.loc 1 1188 0
 2854 0006 FFF7FEFF 		bl	u8g2_string_width
 2855              	.LVL395:
1189:Core/u8g2/u8g2_font.c **** }
 2856              		.loc 1 1189 0
 2857 000a 08BD     		pop	{r3, pc}
 2858              	.L193:
 2859              		.align	2
 2860              	.L192:
 2861 000c 00000000 		.word	u8x8_ascii_next
 2862              		.cfi_endproc
 2863              	.LFE44:
 2865              		.section	.text.u8g2_GetExactStrWidth,"ax",%progbits
 2866              		.align	1
 2867              		.global	u8g2_GetExactStrWidth
 2868              		.syntax unified
 2869              		.thumb
 2870              		.thumb_func
 2871              		.fpu softvfp
 2873              	u8g2_GetExactStrWidth:
 2874              	.LFB45:
ARM GAS  C:\Users\ASUS\AppData\Local\Temp\ccnpu2Hi.s 			page 77


1190:Core/u8g2/u8g2_font.c **** 
1191:Core/u8g2/u8g2_font.c **** u8g2_uint_t u8g2_GetExactStrWidth(u8g2_t *u8g2, const char *s)
1192:Core/u8g2/u8g2_font.c **** {
 2875              		.loc 1 1192 0
 2876              		.cfi_startproc
 2877              		@ args = 0, pretend = 0, frame = 0
 2878              		@ frame_needed = 0, uses_anonymous_args = 0
 2879              	.LVL396:
 2880 0000 08B5     		push	{r3, lr}
 2881              	.LCFI43:
 2882              		.cfi_def_cfa_offset 8
 2883              		.cfi_offset 3, -8
 2884              		.cfi_offset 14, -4
1193:Core/u8g2/u8g2_font.c ****   u8g2->u8x8.next_cb = u8x8_ascii_next;
 2885              		.loc 1 1193 0
 2886 0002 024B     		ldr	r3, .L196
 2887 0004 4360     		str	r3, [r0, #4]
1194:Core/u8g2/u8g2_font.c ****   return u8g2_calculate_exact_string_width(u8g2, s);
 2888              		.loc 1 1194 0
 2889 0006 FFF7FEFF 		bl	u8g2_calculate_exact_string_width
 2890              	.LVL397:
1195:Core/u8g2/u8g2_font.c **** }
 2891              		.loc 1 1195 0
 2892 000a 08BD     		pop	{r3, pc}
 2893              	.L197:
 2894              		.align	2
 2895              	.L196:
 2896 000c 00000000 		.word	u8x8_ascii_next
 2897              		.cfi_endproc
 2898              	.LFE45:
 2900              		.section	.text.u8g2_GetUTF8Width,"ax",%progbits
 2901              		.align	1
 2902              		.global	u8g2_GetUTF8Width
 2903              		.syntax unified
 2904              		.thumb
 2905              		.thumb_func
 2906              		.fpu softvfp
 2908              	u8g2_GetUTF8Width:
 2909              	.LFB46:
1196:Core/u8g2/u8g2_font.c **** 
1197:Core/u8g2/u8g2_font.c **** /*
1198:Core/u8g2/u8g2_font.c **** source: https://en.wikipedia.org/wiki/UTF-8
1199:Core/u8g2/u8g2_font.c **** Bits	from 		to			bytes	Byte 1 		Byte 2 		Byte 3 		Byte 4 		Byte 5 		Byte 6
1200:Core/u8g2/u8g2_font.c ****   7 	U+0000 		U+007F 		1 		0xxxxxxx
1201:Core/u8g2/u8g2_font.c **** 11 	U+0080 		U+07FF 		2 		110xxxxx 	10xxxxxx
1202:Core/u8g2/u8g2_font.c **** 16 	U+0800 		U+FFFF 		3 		1110xxxx 	10xxxxxx 	10xxxxxx
1203:Core/u8g2/u8g2_font.c **** 21 	U+10000 	U+1FFFFF 	4 		11110xxx 	10xxxxxx 	10xxxxxx 	10xxxxxx
1204:Core/u8g2/u8g2_font.c **** 26 	U+200000 	U+3FFFFFF 	5 		111110xx 	10xxxxxx 	10xxxxxx 	10xxxxxx 	10xxxxxx
1205:Core/u8g2/u8g2_font.c **** 31 	U+4000000 	U+7FFFFFFF 	6 		1111110x 	10xxxxxx 	10xxxxxx 	10xxxxxx 	10xxxxxx 	10xxxxxx  
1206:Core/u8g2/u8g2_font.c **** */
1207:Core/u8g2/u8g2_font.c **** u8g2_uint_t u8g2_GetUTF8Width(u8g2_t *u8g2, const char *str)
1208:Core/u8g2/u8g2_font.c **** {
 2910              		.loc 1 1208 0
 2911              		.cfi_startproc
 2912              		@ args = 0, pretend = 0, frame = 0
 2913              		@ frame_needed = 0, uses_anonymous_args = 0
 2914              	.LVL398:
ARM GAS  C:\Users\ASUS\AppData\Local\Temp\ccnpu2Hi.s 			page 78


 2915 0000 08B5     		push	{r3, lr}
 2916              	.LCFI44:
 2917              		.cfi_def_cfa_offset 8
 2918              		.cfi_offset 3, -8
 2919              		.cfi_offset 14, -4
1209:Core/u8g2/u8g2_font.c ****   u8g2->u8x8.next_cb = u8x8_utf8_next;
 2920              		.loc 1 1209 0
 2921 0002 024B     		ldr	r3, .L200
 2922 0004 4360     		str	r3, [r0, #4]
1210:Core/u8g2/u8g2_font.c ****   return u8g2_string_width(u8g2, str);
 2923              		.loc 1 1210 0
 2924 0006 FFF7FEFF 		bl	u8g2_string_width
 2925              	.LVL399:
1211:Core/u8g2/u8g2_font.c **** }
 2926              		.loc 1 1211 0
 2927 000a 08BD     		pop	{r3, pc}
 2928              	.L201:
 2929              		.align	2
 2930              	.L200:
 2931 000c 00000000 		.word	u8x8_utf8_next
 2932              		.cfi_endproc
 2933              	.LFE46:
 2935              		.section	.text.u8g2_SetFontDirection,"ax",%progbits
 2936              		.align	1
 2937              		.global	u8g2_SetFontDirection
 2938              		.syntax unified
 2939              		.thumb
 2940              		.thumb_func
 2941              		.fpu softvfp
 2943              	u8g2_SetFontDirection:
 2944              	.LFB47:
1212:Core/u8g2/u8g2_font.c **** 
1213:Core/u8g2/u8g2_font.c **** 
1214:Core/u8g2/u8g2_font.c **** 
1215:Core/u8g2/u8g2_font.c **** void u8g2_SetFontDirection(u8g2_t *u8g2, uint8_t dir)
1216:Core/u8g2/u8g2_font.c **** {
 2945              		.loc 1 1216 0
 2946              		.cfi_startproc
 2947              		@ args = 0, pretend = 0, frame = 0
 2948              		@ frame_needed = 0, uses_anonymous_args = 0
 2949              		@ link register save eliminated.
 2950              	.LVL400:
1217:Core/u8g2/u8g2_font.c **** #ifdef U8G2_WITH_FONT_ROTATION  
1218:Core/u8g2/u8g2_font.c ****   u8g2->font_decode.dir = dir;
 2951              		.loc 1 1218 0
 2952 0000 80F86610 		strb	r1, [r0, #102]
1219:Core/u8g2/u8g2_font.c **** #endif
1220:Core/u8g2/u8g2_font.c **** }
 2953              		.loc 1 1220 0
 2954 0004 7047     		bx	lr
 2955              		.cfi_endproc
 2956              	.LFE47:
 2958              		.text
 2959              	.Letext0:
 2960              		.file 2 "c:\\program files (x86)\\gnu_tools_arm_embedded\\7_2017-q4-major\\arm-none-eabi\\include\
 2961              		.file 3 "c:\\program files (x86)\\gnu_tools_arm_embedded\\7_2017-q4-major\\arm-none-eabi\\include\
 2962              		.file 4 "c:\\program files (x86)\\gnu_tools_arm_embedded\\7_2017-q4-major\\lib\\gcc\\arm-none-eabi
ARM GAS  C:\Users\ASUS\AppData\Local\Temp\ccnpu2Hi.s 			page 79


 2963              		.file 5 "Core/u8g2/../u8g2/../u8g2/u8x8.h"
 2964              		.file 6 "Core/u8g2/../u8g2/u8g2.h"
ARM GAS  C:\Users\ASUS\AppData\Local\Temp\ccnpu2Hi.s 			page 80

